
led.elf:     file format elf32-littleriscv


Disassembly of section .vectors:

00000000 <_stack_start-0x10000>:
  // external interrupts are handled by the same callback
  // until compiler supports IRQ routines
  .org 0x00
  .rept 31
  nop
  .endr
   0:	00000013          	nop
   4:	00000013          	nop
   8:	00000013          	nop
   c:	00000013          	nop
  10:	00000013          	nop
  14:	00000013          	nop
  18:	00000013          	nop
  1c:	00000013          	nop
  20:	00000013          	nop
  24:	00000013          	nop
  28:	00000013          	nop
  2c:	00000013          	nop
  30:	00000013          	nop
  34:	00000013          	nop
  38:	00000013          	nop
  3c:	00000013          	nop
  40:	00000013          	nop
  44:	00000013          	nop
  48:	00000013          	nop
  4c:	00000013          	nop
  50:	00000013          	nop
  54:	00000013          	nop
  58:	00000013          	nop
  5c:	00000013          	nop
  60:	00000013          	nop
  64:	00000013          	nop
  68:	00000013          	nop
  6c:	00000013          	nop
  70:	00000013          	nop
  74:	00000013          	nop
  78:	00000013          	nop
  jal x0, default_exc_handler
  7c:	0100006f          	j	8c <_stext>

  // reset vector
  .org 0x80
  jal x0, reset_handler
  80:	0100006f          	j	90 <reset_handler>

  // illegal instruction exception
  .org 0x84
  jal x0, default_exc_handler
  84:	0080006f          	j	8c <_stext>

  // ecall handler
  .org 0x88
  jal x0, default_exc_handler
  88:	0040006f          	j	8c <_stext>

Disassembly of section .text:

0000008c <_stext>:
  jal x0, default_exc_handler
  8c:	0000006f          	j	8c <_stext>

00000090 <reset_handler>:
  mv  x1, x0
  90:	00000093          	li	ra,0
  mv  x2, x1
  94:	00008113          	mv	sp,ra
  mv  x3, x1
  98:	00008193          	mv	gp,ra
  mv  x4, x1
  9c:	00008213          	mv	tp,ra
  mv  x5, x1
  a0:	00008293          	mv	t0,ra
  mv  x6, x1
  a4:	00008313          	mv	t1,ra
  mv  x7, x1
  a8:	00008393          	mv	t2,ra
  mv  x8, x1
  ac:	00008413          	mv	s0,ra
  mv  x9, x1
  b0:	00008493          	mv	s1,ra
  mv x10, x1
  b4:	00008513          	mv	a0,ra
  mv x11, x1
  b8:	00008593          	mv	a1,ra
  mv x12, x1
  bc:	00008613          	mv	a2,ra
  mv x13, x1
  c0:	00008693          	mv	a3,ra
  mv x14, x1
  c4:	00008713          	mv	a4,ra
  mv x15, x1
  c8:	00008793          	mv	a5,ra
  mv x16, x1
  cc:	00008813          	mv	a6,ra
  mv x17, x1
  d0:	00008893          	mv	a7,ra
  mv x18, x1
  d4:	00008913          	mv	s2,ra
  mv x19, x1
  d8:	00008993          	mv	s3,ra
  mv x20, x1
  dc:	00008a13          	mv	s4,ra
  mv x21, x1
  e0:	00008a93          	mv	s5,ra
  mv x22, x1
  e4:	00008b13          	mv	s6,ra
  mv x23, x1
  e8:	00008b93          	mv	s7,ra
  mv x24, x1
  ec:	00008c13          	mv	s8,ra
  mv x25, x1
  f0:	00008c93          	mv	s9,ra
  mv x26, x1
  f4:	00008d13          	mv	s10,ra
  mv x27, x1
  f8:	00008d93          	mv	s11,ra
  mv x28, x1
  fc:	00008e13          	mv	t3,ra
  mv x29, x1
 100:	00008e93          	mv	t4,ra
  mv x30, x1
 104:	00008f13          	mv	t5,ra
  mv x31, x1
 108:	00008f93          	mv	t6,ra
  la   x2, _stack_start
 10c:	00010117          	auipc	sp,0x10
 110:	ef410113          	addi	sp,sp,-268 # 10000 <_stack_start>

00000114 <_start>:
  la x26, _bss_start
 114:	18800d13          	li	s10,392
  la x27, _bss_end
 118:	18800d93          	li	s11,392
  bge x26, x27, zero_loop_end
 11c:	01bd5863          	bge	s10,s11,12c <main_entry>

00000120 <zero_loop>:
  sw x0, 0(x26)
 120:	000d2023          	sw	zero,0(s10)
  addi x26, x26, 4
 124:	004d0d13          	addi	s10,s10,4
  ble x26, x27, zero_loop
 128:	ffaddce3          	bge	s11,s10,120 <zero_loop>

0000012c <main_entry>:
  addi x10, x0, 0
 12c:	00000513          	li	a0,0
  addi x11, x0, 0
 130:	00000593          	li	a1,0
  jal x1, main
 134:	004000ef          	jal	ra,138 <main>

00000138 <main>:
  return usleep_ibex(usec);
}

int main(int argc, char **argv) {
  volatile uint32_t *var = (volatile uint32_t *) 0x10000000;
  *var = 0;
 138:	100007b7          	lui	a5,0x10000
  asm volatile(
 13c:	00001737          	lui	a4,0x1
  *var = 0;
 140:	0007a023          	sw	zero,0(a5) # 10000000 <_stack_start+0xfff0000>
  asm volatile(
 144:	c3570713          	addi	a4,a4,-971 # c35 <__DTOR_END__+0xaad>

  while (1) {
    //usleep(1000 * 1000); // 1000 ms
    usleep(1 * 1000); // 1 ms
    *var = *var + 1;
 148:	100006b7          	lui	a3,0x10000
  asm volatile(
 14c:	00070793          	mv	a5,a4
 150:	00000013          	nop
 154:	00000013          	nop
 158:	00000013          	nop
 15c:	00000013          	nop
 160:	fff78793          	addi	a5,a5,-1
 164:	fe0796e3          	bnez	a5,150 <main+0x18>
    *var = *var + 1;
 168:	0006a783          	lw	a5,0(a3) # 10000000 <_stack_start+0xfff0000>
 16c:	00178793          	addi	a5,a5,1
 170:	00f6a023          	sw	a5,0(a3)
 174:	fd9ff06f          	j	14c <main+0x14>

00000178 <__CTOR_LIST__>:
	...

00000180 <__CTOR_END__>:
	...
