
led.elf:     file format elf32-littleriscv


Disassembly of section .vectors:

00000000 <_stack_start-0x10000>:
  // external interrupts are handled by the same callback
  // until compiler supports IRQ routines
  .org 0x00
  .rept 31
  nop
  .endr
   0:	00000013          	nop
   4:	00000013          	nop
   8:	00000013          	nop
   c:	00000013          	nop
  10:	00000013          	nop
  14:	00000013          	nop
  18:	00000013          	nop
  1c:	00000013          	nop
  20:	00000013          	nop
  24:	00000013          	nop
  28:	00000013          	nop
  2c:	00000013          	nop
  30:	00000013          	nop
  34:	00000013          	nop
  38:	00000013          	nop
  3c:	00000013          	nop
  40:	00000013          	nop
  44:	00000013          	nop
  48:	00000013          	nop
  4c:	00000013          	nop
  50:	00000013          	nop
  54:	00000013          	nop
  58:	00000013          	nop
  5c:	00000013          	nop
  60:	00000013          	nop
  64:	00000013          	nop
  68:	00000013          	nop
  6c:	00000013          	nop
  70:	00000013          	nop
  74:	00000013          	nop
  78:	00000013          	nop
  jal x0, default_exc_handler
  7c:	0100006f          	j	8c <_stext>

  // reset vector
  .org 0x80
  jal x0, reset_handler
  80:	0100006f          	j	90 <reset_handler>

  // illegal instruction exception
  .org 0x84
  jal x0, default_exc_handler
  84:	0080006f          	j	8c <_stext>

  // ecall handler
  .org 0x88
  jal x0, default_exc_handler
  88:	0040006f          	j	8c <_stext>

Disassembly of section .text:

0000008c <_stext>:
  jal x0, default_exc_handler
  8c:	0000006f          	j	8c <_stext>

00000090 <reset_handler>:
  mv  x1, x0
  90:	00000093          	li	ra,0
  mv  x2, x1
  94:	00008113          	mv	sp,ra
  mv  x3, x1
  98:	00008193          	mv	gp,ra
  mv  x4, x1
  9c:	00008213          	mv	tp,ra
  mv  x5, x1
  a0:	00008293          	mv	t0,ra
  mv  x6, x1
  a4:	00008313          	mv	t1,ra
  mv  x7, x1
  a8:	00008393          	mv	t2,ra
  mv  x8, x1
  ac:	00008413          	mv	s0,ra
  mv  x9, x1
  b0:	00008493          	mv	s1,ra
  mv x10, x1
  b4:	00008513          	mv	a0,ra
  mv x11, x1
  b8:	00008593          	mv	a1,ra
  mv x12, x1
  bc:	00008613          	mv	a2,ra
  mv x13, x1
  c0:	00008693          	mv	a3,ra
  mv x14, x1
  c4:	00008713          	mv	a4,ra
  mv x15, x1
  c8:	00008793          	mv	a5,ra
  mv x16, x1
  cc:	00008813          	mv	a6,ra
  mv x17, x1
  d0:	00008893          	mv	a7,ra
  mv x18, x1
  d4:	00008913          	mv	s2,ra
  mv x19, x1
  d8:	00008993          	mv	s3,ra
  mv x20, x1
  dc:	00008a13          	mv	s4,ra
  mv x21, x1
  e0:	00008a93          	mv	s5,ra
  mv x22, x1
  e4:	00008b13          	mv	s6,ra
  mv x23, x1
  e8:	00008b93          	mv	s7,ra
  mv x24, x1
  ec:	00008c13          	mv	s8,ra
  mv x25, x1
  f0:	00008c93          	mv	s9,ra
  mv x26, x1
  f4:	00008d13          	mv	s10,ra
  mv x27, x1
  f8:	00008d93          	mv	s11,ra
  mv x28, x1
  fc:	00008e13          	mv	t3,ra
  mv x29, x1
 100:	00008e93          	mv	t4,ra
  mv x30, x1
 104:	00008f13          	mv	t5,ra
  mv x31, x1
 108:	00008f93          	mv	t6,ra
  la   x2, _stack_start
 10c:	00010117          	auipc	sp,0x10
 110:	ef410113          	addi	sp,sp,-268 # 10000 <_stack_start>

00000114 <_start>:
  la x26, _bss_start
 114:	18800d13          	li	s10,392
  la x27, _bss_end
 118:	18800d93          	li	s11,392
  bge x26, x27, zero_loop_end
 11c:	01bd5863          	bge	s10,s11,12c <main_entry>

00000120 <zero_loop>:
  sw x0, 0(x26)
 120:	000d2023          	sw	zero,0(s10)
  addi x26, x26, 4
 124:	004d0d13          	addi	s10,s10,4
  ble x26, x27, zero_loop
 128:	ffaddce3          	bge	s11,s10,120 <zero_loop>

0000012c <main_entry>:
  addi x10, x0, 0
 12c:	00000513          	li	a0,0
  addi x11, x0, 0
 130:	00000593          	li	a1,0
  jal x1, main
 134:	004000ef          	jal	ra,138 <main>

00000138 <main>:
  return usleep_ibex(usec);
}

int main(int argc, char **argv) {
  volatile uint32_t *var = (volatile uint32_t *) 0x10000000;
  *var = 0;
 138:	100007b7          	lui	a5,0x10000
  asm volatile(
 13c:	00001737          	lui	a4,0x1
  *var = 0;
 140:	0007a023          	sw	zero,0(a5) # 10000000 <_stack_start+0xfff0000>
  asm volatile(
 144:	c3570713          	addi	a4,a4,-971 # c35 <__DTOR_END__+0xaad>

  while (1) {
    //usleep(1000 * 1000); // 1000 ms
    usleep(1 * 1000); // 1 ms
    *var = *var + 1;
 148:	100006b7          	lui	a3,0x10000
  asm volatile(
 14c:	00070793          	mv	a5,a4
 150:	00000013          	nop
 154:	00000013          	nop
 158:	00000013          	nop
 15c:	00000013          	nop
 160:	fff78793          	addi	a5,a5,-1
 164:	fe0796e3          	bnez	a5,150 <main+0x18>
    *var = *var + 1;
 168:	0006a783          	lw	a5,0(a3) # 10000000 <_stack_start+0xfff0000>
 16c:	00178793          	addi	a5,a5,1
 170:	00f6a023          	sw	a5,0(a3)
 174:	fd9ff06f          	j	14c <main+0x14>

00000178 <__CTOR_LIST__>:
	...

00000180 <__CTOR_END__>:
	...

Disassembly of section .stack:

0000c000 <_stack-0x2000>:
	...

Disassembly of section .debug_info:

00000000 <.debug_info>:
  .endr
   0:	000001b7          	lui	gp,0x0
   4:	0004                	0x4
   6:	0000                	unimp
   8:	0000                	unimp
   a:	0104                	addi	s1,sp,128
   c:	00ee                	slli	ra,ra,0x1b
   e:	0000                	unimp
  10:	830c                	0x830c
  12:	0000                	unimp
  14:	2000                	fld	fs0,0(s0)
  16:	0000                	unimp
  18:	2000                	fld	fs0,0(s0)
	...
  22:	0000                	unimp
  24:	0200                	addi	s0,sp,256
  26:	0601                	addi	a2,a2,0
  28:	0014                	0x14
  2a:	0000                	unimp
  2c:	0102                	c.slli64	sp
  2e:	1208                	addi	a0,sp,288
  30:	0000                	unimp
  32:	0200                	addi	s0,sp,256
  34:	0502                	c.slli64	a0
  36:	00df 0000 0202      	0x202000000df
  3c:	00007007          	0x7007
  40:	0200                	addi	s0,sp,256
  42:	0504                	addi	s1,sp,640
  44:	00d6                	slli	ra,ra,0x15
  46:	0000                	unimp
  48:	00008903          	lb	s2,0(ra)
  4c:	0200                	addi	s0,sp,256
  4e:	0054194f          	fnmadd.s	fs2,fs0,ft5,ft0,rtz
  52:	0000                	unimp
  54:	0402                	c.slli64	s0
  56:	0000aa07          	flw	fs4,0(ra)
  5a:	0200                	addi	s0,sp,256
  5c:	0508                	addi	a0,sp,640
  5e:	00d1                	addi	ra,ra,20
  60:	0000                	unimp
  62:	0802                	c.slli64	a6
  64:	0000a507          	flw	fa0,0(ra)
  68:	0400                	addi	s0,sp,512
  6a:	0504                	addi	s1,sp,640
  6c:	6e69                	lui	t3,0x1a
  6e:	0074                	addi	a3,sp,12
  70:	0402                	c.slli64	s0
  72:	0000af07          	flw	ft10,0(ra)
  76:	0300                	addi	s0,sp,384
  78:	0000008b          	0x8b
  jal x0, default_exc_handler
  7c:	48143003          	0x48143003
  jal x0, reset_handler
  80:	0000                	unimp
  82:	0500                	addi	s0,sp,640
  jal x0, default_exc_handler
  84:	00000077          	0x77
  jal x0, default_exc_handler
  88:	9406                	add	s0,s0,ra
  8a:	0000                	unimp
  jal x0, default_exc_handler
  8c:	0100                	addi	s0,sp,128
  8e:	0525                	addi	a0,a0,9
  mv  x1, x0
  90:	0069                	c.nop	26
  92:	0000                	unimp
  mv  x2, x1
  94:	0138                	addi	a4,sp,136
  96:	0000                	unimp
  mv  x3, x1
  98:	0040                	addi	s0,sp,4
  9a:	0000                	unimp
  mv  x4, x1
  9c:	9c01                	0x9c01
  9e:	00000137          	lui	sp,0x0
  mv  x5, x1
  a2:	0000bc07          	fld	fs8,0(ra)
  mv  x6, x1
  a6:	0100                	addi	s0,sp,128
  mv  x7, x1
  a8:	0e25                	addi	t3,t3,9
  aa:	0069                	c.nop	26
  mv  x8, x1
  ac:	0000                	unimp
  ae:	5a01                	li	s4,-32
  mv  x9, x1
  b0:	0000e907          	0xe907
  mv x10, x1
  b4:	0100                	addi	s0,sp,128
  b6:	1b25                	addi	s6,s6,-23
  mv x11, x1
  b8:	00000137          	lui	sp,0x0
  mv x12, x1
  bc:	5b01                	li	s6,-32
  be:	7608                	flw	fa0,40(a2)
  mv x13, x1
  c0:	7261                	lui	tp,0xffff8
  c2:	0100                	addi	s0,sp,128
  mv x14, x1
  c4:	1626                	slli	a2,a2,0x29
  c6:	014a                	slli	sp,sp,0x12
  mv x15, x1
  c8:	0000                	unimp
  ca:	0000                	unimp
  mv x16, x1
  cc:	1000                	addi	s0,sp,32
  ce:	5009                	c.li	zero,-30
  mv x17, x1
  d0:	0001                	nop
  d2:	3c00                	fld	fs0,56(s0)
  mv x18, x1
  d4:	0001                	nop
  d6:	0000                	unimp
  mv x19, x1
  d8:	0000                	unimp
  da:	0100                	addi	s0,sp,128
  mv x20, x1
  dc:	610a052b          	0x610a052b
  mv x21, x1
  e0:	0001                	nop
  e2:	0000                	unimp
  mv x22, x1
  e4:	0000                	unimp
  e6:	0900                	addi	s0,sp,144
  mv x23, x1
  e8:	016e                	slli	sp,sp,0x1b
  ea:	0000                	unimp
  mv x24, x1
  ec:	013c                	addi	a5,sp,136
  ee:	0000                	unimp
  mv x25, x1
  f0:	0000                	unimp
  f2:	0000                	unimp
  mv x26, x1
  f4:	2201                	jal	1f4 <__DTOR_END__+0x6c>
  f6:	0a0a                	slli	s4,s4,0x2
  mv x27, x1
  f8:	017f                	0x17f
  fa:	0000                	unimp
  mv x28, x1
  fc:	0000                	unimp
  fe:	0000                	unimp
  mv x29, x1
 100:	0000000b          	0xb
  mv x30, x1
 104:	0c00                	addi	s0,sp,528
 106:	0000018b          	0x18b
  mv x31, x1
 10a:	0016                	c.slli	zero,0x5
  la   x2, _stack_start
 10c:	0000                	unimp
 10e:	9809                	andi	s0,s0,-30
 110:	0001                	nop
 112:	3c00                	fld	fs0,56(s0)
  la x26, _bss_start
 114:	0001                	nop
 116:	0000                	unimp
  la x27, _bss_end
 118:	0000                	unimp
 11a:	0100                	addi	s0,sp,128
  bge x26, x27, zero_loop_end
 11c:	031d                	addi	t1,t1,7
 11e:	a10a                	fsd	ft2,128(sp)
  sw x0, 0(x26)
 120:	0001                	nop
 122:	1600                	addi	s0,sp,800
  addi x26, x26, 4
 124:	0000                	unimp
 126:	0b00                	addi	s0,sp,400
  ble x26, x27, zero_loop
 128:	0000                	unimp
 12a:	0000                	unimp
  addi x10, x0, 0
 12c:	ad0d                	j	75e <__DTOR_END__+0x5d6>
 12e:	0001                	nop
  addi x11, x0, 0
 130:	0000                	unimp
 132:	0000                	unimp
  jal x1, main
 134:	0000                	unimp
 136:	0e00                	addi	s0,sp,784
  *var = 0;
 138:	3d04                	fld	fs1,56(a0)
 13a:	0001                	nop
  asm volatile(
 13c:	0e00                	addi	s0,sp,784
 13e:	4304                	lw	s1,0(a4)
  *var = 0;
 140:	0001                	nop
 142:	0200                	addi	s0,sp,256
  asm volatile(
 144:	0801                	addi	a6,a6,0
 146:	0000001b          	0x1b
    *var = *var + 1;
 14a:	040e                	slli	s0,s0,0x3
  asm volatile(
 14c:	00000083          	lb	ra,0(zero) # 0 <__DYNAMIC>
 150:	0000050f          	0x50f
 154:	0100                	addi	s0,sp,128
 156:	0c21                	addi	s8,s8,8
 158:	0069                	c.nop	26
 15a:	0000                	unimp
 15c:	6e01                	0x6e01
 15e:	0001                	nop
 160:	1000                	addi	s0,sp,32
 162:	0000                	unimp
 164:	0000                	unimp
 166:	2101                	jal	566 <__DTOR_END__+0x3de>
    *var = *var + 1;
 168:	5421                	li	s0,-24
 16a:	0000                	unimp
 16c:	0000                	unimp
 16e:	0001410f          	0x1410f
 172:	0100                	addi	s0,sp,128
 174:	0c19                	addi	s8,s8,6
 176:	0069                	c.nop	26
 178:	0000                	unimp
 17a:	9801                	andi	s0,s0,-32
 17c:	0001                	nop
 17e:	1000                	addi	s0,sp,32
 180:	0000                	unimp
 182:	0000                	unimp
 184:	1901                	addi	s2,s2,-32
 186:	5426                	lw	s0,104(sp)
 188:	0000                	unimp
 18a:	1100                	addi	s0,sp,160
 18c:	0099                	addi	ra,ra,6
 18e:	0000                	unimp
 190:	1a01                	addi	s4,s4,-32
 192:	5411                	li	s0,-28
 194:	0000                	unimp
 196:	0000                	unimp
 198:	c112                	sw	tp,128(sp)
 19a:	0000                	unimp
 19c:	0100                	addi	s0,sp,128
 19e:	10010d0b          	0x10010d0b
 1a2:	000c                	0xc
 1a4:	0000                	unimp
 1a6:	0b01                	addi	s6,s6,0
 1a8:	0000542b          	0x542b
 1ac:	1300                	addi	s0,sp,416
 1ae:	0074756f          	jal	a0,479b4 <_stack_start+0x379b4>
 1b2:	0c01                	addi	s8,s8,0
 1b4:	00006907          	0x6907
 1b8:	0000                	unimp
 1ba:	1e00                	addi	s0,sp,816
 1bc:	0000                	unimp
 1be:	0200                	addi	s0,sp,256
 1c0:	0d00                	addi	s0,sp,656
 1c2:	0001                	nop
 1c4:	0400                	addi	s0,sp,512
 1c6:	1e01                	addi	t3,t3,-32
 1c8:	0002                	c.slli64	zero
 1ca:	3000                	fld	fs0,32(s0)
 1cc:	0000                	unimp
 1ce:	4d00                	lw	s0,24(a0)
 1d0:	0001                	nop
 1d2:	2000                	fld	fs0,0(s0)
 1d4:	0000                	unimp
 1d6:	5400                	lw	s0,40(s0)
 1d8:	0001                	nop
 1da:	0100                	addi	s0,sp,128
 1dc:	80              	Address 0x00000000000001dc is out of bounds.


Disassembly of section .debug_abbrev:

00000000 <.debug_abbrev>:
  .endr
   0:	1101                	addi	sp,sp,-32
   2:	2501                	jal	602 <__DTOR_END__+0x47a>
   4:	130e                	slli	t1,t1,0x23
   6:	1b0e030b          	0x1b0e030b
   a:	550e                	lw	a0,224(sp)
   c:	10011117          	auipc	sp,0x10011
  10:	02000017          	auipc	zero,0x2000
  14:	0024                	addi	s1,sp,8
  16:	0b3e0b0b          	0xb3e0b0b
  1a:	00000e03          	lb	t3,0(zero) # 0 <__DYNAMIC>
  1e:	03001603          	lh	a2,48(zero) # 30 <__DYNAMIC+0x30>
  22:	3a0e                	fld	fs4,224(sp)
  24:	390b3b0b          	0x390b3b0b
  28:	0013490b          	0x13490b
  2c:	0400                	addi	s0,sp,512
  2e:	0024                	addi	s1,sp,8
  30:	0b3e0b0b          	0xb3e0b0b
  34:	00000803          	lb	a6,0(zero) # 0 <__DYNAMIC>
  38:	3505                	jal	fffffe58 <_stack_start+0xfffefe58>
  3a:	4900                	lw	s0,16(a0)
  3c:	06000013          	li	zero,96
  40:	012e                	slli	sp,sp,0xb
  42:	0e03193f 0b3b0b3a 	0xb3b0b3a0e03193f
  4a:	0b39                	addi	s6,s6,14
  4c:	13491927          	0x13491927
  50:	0111                	addi	sp,sp,4
  52:	0612                	slli	a2,a2,0x4
  54:	1840                	addi	s0,sp,52
  56:	01194297          	auipc	t0,0x1194
  5a:	07000013          	li	zero,112
  5e:	0005                	c.nop	1
  60:	0b3a0e03          	lb	t3,179(s4)
  64:	0b390b3b          	0xb390b3b
  68:	1349                	addi	t1,t1,-14
  6a:	1802                	slli	a6,a6,0x20
  6c:	0000                	unimp
  6e:	3408                	fld	fa0,40(s0)
  70:	0300                	addi	s0,sp,384
  72:	3a08                	fld	fa0,48(a2)
  74:	390b3b0b          	0x390b3b0b
  78:	1c13490b          	0x1c13490b
  jal x0, default_exc_handler
  7c:	0006                	c.slli	zero,0x1
  7e:	0900                	addi	s0,sp,144
  jal x0, reset_handler
  80:	011d                	addi	sp,sp,7
  82:	1331                	addi	t1,t1,-20
  jal x0, default_exc_handler
  84:	0152                	slli	sp,sp,0x14
  86:	1755                	addi	a4,a4,-11
  jal x0, default_exc_handler
  88:	0b58                	addi	a4,sp,404
  8a:	0b59                	addi	s6,s6,22
  jal x0, default_exc_handler
  8c:	00000b57          	0xb57
  mv  x1, x0
  90:	050a                	slli	a0,a0,0x2
  92:	3100                	fld	fs0,32(a0)
  mv  x2, x1
  94:	00170213          	addi	tp,a4,1
  mv  x3, x1
  98:	0b00                	addi	s0,sp,400
  9a:	1755010b          	0x1755010b
  mv  x4, x1
  9e:	0000                	unimp
  mv  x5, x1
  a0:	340c                	fld	fa1,40(s0)
  a2:	3100                	fld	fs0,32(a0)
  mv  x6, x1
  a4:	00170213          	addi	tp,a4,1
  mv  x7, x1
  a8:	0d00                	addi	s0,sp,656
  aa:	0034                	addi	a3,sp,8
  mv  x8, x1
  ac:	1331                	addi	t1,t1,-20
  ae:	0000                	unimp
  mv  x9, x1
  b0:	0f0e                	slli	t5,t5,0x3
  b2:	0b00                	addi	s0,sp,400
  mv x10, x1
  b4:	0013490b          	0x13490b
  mv x11, x1
  b8:	0f00                	addi	s0,sp,912
  ba:	012e                	slli	sp,sp,0xb
  mv x12, x1
  bc:	0b3a0e03          	lb	t3,179(s4)
  mv x13, x1
  c0:	0b390b3b          	0xb390b3b
  mv x14, x1
  c4:	13491927          	0x13491927
  mv x15, x1
  c8:	0b20                	addi	s0,sp,408
  ca:	1301                	addi	t1,t1,-32
  mv x16, x1
  cc:	0000                	unimp
  ce:	0510                	addi	a2,sp,640
  mv x17, x1
  d0:	0300                	addi	s0,sp,384
  d2:	3a0e                	fld	fs4,224(sp)
  mv x18, x1
  d4:	390b3b0b          	0x390b3b0b
  mv x19, x1
  d8:	0013490b          	0x13490b
  mv x20, x1
  dc:	1100                	addi	s0,sp,160
  de:	0034                	addi	a3,sp,8
  mv x21, x1
  e0:	0b3a0e03          	lb	t3,179(s4)
  mv x22, x1
  e4:	0b390b3b          	0xb390b3b
  mv x23, x1
  e8:	1349                	addi	t1,t1,-14
  ea:	0000                	unimp
  mv x24, x1
  ec:	2e12                	fld	ft8,256(sp)
  ee:	0301                	addi	t1,t1,0
  mv x25, x1
  f0:	3a0e                	fld	fs4,224(sp)
  f2:	390b3b0b          	0x390b3b0b
  mv x26, x1
  f6:	2019270b          	0x2019270b
  mv x27, x1
  fa:	1300000b          	0x1300000b
  mv x28, x1
  fe:	0034                	addi	a3,sp,8
  mv x29, x1
 100:	0b3a0803          	lb	a6,179(s4)
  mv x30, x1
 104:	0b390b3b          	0xb390b3b
  mv x31, x1
 108:	1349                	addi	t1,t1,-14
 10a:	0000                	unimp
  la   x2, _stack_start
 10c:	0100                	addi	s0,sp,128
 10e:	0011                	c.nop	4
 110:	0610                	addi	a2,sp,768
 112:	0655                	addi	a2,a2,21
  la x26, _bss_start
 114:	0e1b0e03          	lb	t3,225(s6)
  la x27, _bss_end
 118:	0e25                	addi	t3,t3,9
 11a:	00000513          	li	a0,0
	...

Disassembly of section .debug_loc:

00000000 <.debug_loc>:
  .endr
   0:	014c                	addi	a1,sp,132
   2:	0000                	unimp
   4:	0168                	addi	a0,sp,140
   6:	0000                	unimp
   8:	0004                	0x4
   a:	e80a                	fsw	ft2,16(sp)
   c:	00009f03          	lh	t5,0(ra)
  10:	0000                	unimp
  12:	0000                	unimp
  14:	0000                	unimp
  16:	014c                	addi	a1,sp,132
  18:	0000                	unimp
  1a:	0168                	addi	a0,sp,140
  1c:	0000                	unimp
  1e:	0004                	0x4
  20:	350a                	fld	fa0,160(sp)
  22:	9f0c                	0x9f0c
	...

Disassembly of section .debug_aranges:

00000000 <.debug_aranges>:
   0:	001c                	0x1c
   2:	0000                	unimp
   4:	0002                	c.slli64	zero
   6:	0000                	unimp
   8:	0000                	unimp
   a:	0004                	0x4
   c:	0000                	unimp
   e:	0000                	unimp
  10:	0138                	addi	a4,sp,136
  12:	0000                	unimp
  14:	0040                	addi	s0,sp,4
	...
  1e:	0000                	unimp
  20:	0024                	addi	s1,sp,8
  22:	0000                	unimp
  24:	0002                	c.slli64	zero
  26:	000001bb          	0x1bb
  2a:	0004                	0x4
  2c:	0000                	unimp
  2e:	0000                	unimp
  30:	008c                	addi	a1,sp,64
  32:	0000                	unimp
  34:	00ac                	addi	a1,sp,72
  36:	0000                	unimp
  38:	0000                	unimp
  3a:	0000                	unimp
  3c:	008c                	addi	a1,sp,64
	...

Disassembly of section .debug_ranges:

00000000 <.debug_ranges>:
   0:	013c                	addi	a5,sp,136
   2:	0000                	unimp
   4:	0140                	addi	s0,sp,132
   6:	0000                	unimp
   8:	0144                	addi	s1,sp,132
   a:	0000                	unimp
   c:	0148                	addi	a0,sp,132
   e:	0000                	unimp
  10:	014c                	addi	a1,sp,132
  12:	0000                	unimp
  14:	0168                	addi	a0,sp,140
	...
  1e:	0000                	unimp
  20:	0138                	addi	a4,sp,136
  22:	0000                	unimp
  24:	0178                	addi	a4,sp,140
	...
  2e:	0000                	unimp
  30:	ffff                	0xffff
  32:	ffff                	0xffff
  34:	0000                	unimp
  36:	0000                	unimp
  38:	008c                	addi	a1,sp,64
  3a:	0000                	unimp
  3c:	0138                	addi	a4,sp,136
  3e:	0000                	unimp
  40:	0000                	unimp
  42:	0000                	unimp
  44:	008c                	addi	a1,sp,64
	...

Disassembly of section .debug_line:

00000000 <.debug_line>:
   0:	021a                	slli	tp,tp,0x6
   2:	0000                	unimp
   4:	01390003          	lb	zero,19(s2)
   8:	0000                	unimp
   a:	0101                	addi	sp,sp,0
   c:	000d0efb          	0xd0efb
  10:	0101                	addi	sp,sp,0
  12:	0101                	addi	sp,sp,0
  14:	0000                	unimp
  16:	0100                	addi	s0,sp,128
  18:	0000                	unimp
  1a:	2f01                	jal	72a <__DTOR_END__+0x5a2>
  1c:	6f68                	flw	fa0,92(a4)
  1e:	656d                	lui	a0,0x1b
  20:	2f43432f          	0x2f43432f
  24:	6262                	flw	ft4,24(sp)
  26:	7565                	lui	a0,0xffff9
  28:	72657473          	csrrci	s0,0x726,10
  2c:	7070412f          	0x7070412f
  30:	696c                	flw	fa1,84(a0)
  32:	69746163          	bltu	s0,s7,6b4 <__DTOR_END__+0x52c>
  36:	2f736e6f          	jal	t3,36b2c <_stack_start+0x26b2c>
  3a:	6972                	flw	fs2,28(sp)
  3c:	36766373          	csrrsi	t1,0x367,12
  40:	2d34                	fld	fa3,88(a0)
  42:	6e75                	lui	t3,0x1d
  44:	776f6e6b          	0x776f6e6b
  48:	2d6e                	fld	fs10,216(sp)
  4a:	6c65                	lui	s8,0x19
  4c:	2d66                	fld	fs10,88(sp)
  4e:	2d636367          	0x2d636367
  52:	2e38                	fld	fa4,88(a2)
  54:	2d302e33          	0x2d302e33
  58:	3032                	fld	ft0,296(sp)
  5a:	3931                	jal	fffffc76 <_stack_start+0xfffefc76>
  5c:	302e                	fld	ft0,232(sp)
  5e:	2e38                	fld	fa4,88(a2)
  60:	2d30                	fld	fa2,88(a0)
  62:	3878                	fld	fa4,240(s0)
  64:	5f36                	lw	t5,108(sp)
  66:	3436                	fld	fs0,360(sp)
  68:	6c2d                	lui	s8,0xb
  6a:	6e69                	lui	t3,0x1a
  6c:	7875                	lui	a6,0xffffd
  6e:	632d                	lui	t1,0xb
  70:	6e65                	lui	t3,0x19
  72:	6f74                	flw	fa3,92(a4)
  74:	722f3673          	csrrc	a2,0x722,t5
  78:	7369                	lui	t1,0xffffa
  7a:	34367663          	bgeu	a2,gp,3c6 <__DTOR_END__+0x23e>
  jal x0, default_exc_handler
  7e:	752d                	lui	a0,0xfffeb
  jal x0, reset_handler
  80:	6b6e                	flw	fs6,216(sp)
  82:	6f6e                	flw	ft10,216(sp)
  jal x0, default_exc_handler
  84:	652d6e77          	0x652d6e77
  jal x0, default_exc_handler
  88:	666c                	flw	fa1,76(a2)
  8a:	636e692f          	0x636e692f
  jal x0, default_exc_handler
  8e:	756c                	flw	fa1,108(a0)
  mv  x1, x0
  90:	6564                	flw	fs1,76(a0)
  92:	63616d2f          	0x63616d2f
  mv  x2, x1
  96:	6968                	flw	fa0,84(a0)
  mv  x3, x1
  98:	656e                	flw	fa0,216(sp)
  9a:	2f00                	fld	fs0,24(a4)
  mv  x4, x1
  9c:	6f68                	flw	fa0,92(a4)
  9e:	656d                	lui	a0,0x1b
  mv  x5, x1
  a0:	2f43432f          	0x2f43432f
  mv  x6, x1
  a4:	6262                	flw	ft4,24(sp)
  a6:	7565                	lui	a0,0xffff9
  mv  x7, x1
  a8:	72657473          	csrrci	s0,0x726,10
  mv  x8, x1
  ac:	7070412f          	0x7070412f
  mv  x9, x1
  b0:	696c                	flw	fa1,84(a0)
  b2:	69746163          	bltu	s0,s7,734 <__DTOR_END__+0x5ac>
  mv x10, x1
  b6:	2f736e6f          	jal	t3,36bac <_stack_start+0x26bac>
  mv x11, x1
  ba:	6972                	flw	fs2,28(sp)
  mv x12, x1
  bc:	36766373          	csrrsi	t1,0x367,12
  mv x13, x1
  c0:	2d34                	fld	fa3,88(a0)
  c2:	6e75                	lui	t3,0x1d
  mv x14, x1
  c4:	776f6e6b          	0x776f6e6b
  mv x15, x1
  c8:	2d6e                	fld	fs10,216(sp)
  ca:	6c65                	lui	s8,0x19
  mv x16, x1
  cc:	2d66                	fld	fs10,88(sp)
  ce:	2d636367          	0x2d636367
  mv x17, x1
  d2:	2e38                	fld	fa4,88(a2)
  mv x18, x1
  d4:	2d302e33          	0x2d302e33
  mv x19, x1
  d8:	3032                	fld	ft0,296(sp)
  da:	3931                	jal	fffffcf6 <_stack_start+0xfffefcf6>
  mv x20, x1
  dc:	302e                	fld	ft0,232(sp)
  de:	2e38                	fld	fa4,88(a2)
  mv x21, x1
  e0:	2d30                	fld	fa2,88(a0)
  e2:	3878                	fld	fa4,240(s0)
  mv x22, x1
  e4:	5f36                	lw	t5,108(sp)
  e6:	3436                	fld	fs0,360(sp)
  mv x23, x1
  e8:	6c2d                	lui	s8,0xb
  ea:	6e69                	lui	t3,0x1a
  mv x24, x1
  ec:	7875                	lui	a6,0xffffd
  ee:	632d                	lui	t1,0xb
  mv x25, x1
  f0:	6e65                	lui	t3,0x19
  f2:	6f74                	flw	fa3,92(a4)
  mv x26, x1
  f4:	722f3673          	csrrc	a2,0x722,t5
  mv x27, x1
  f8:	7369                	lui	t1,0xffffa
  fa:	34367663          	bgeu	a2,gp,446 <__DTOR_END__+0x2be>
  mv x28, x1
  fe:	752d                	lui	a0,0xfffeb
  mv x29, x1
 100:	6b6e                	flw	fs6,216(sp)
 102:	6f6e                	flw	ft10,216(sp)
  mv x30, x1
 104:	652d6e77          	0x652d6e77
  mv x31, x1
 108:	666c                	flw	fa1,76(a2)
 10a:	636e692f          	0x636e692f
  la   x2, _stack_start
 10e:	756c                	flw	fa1,108(a0)
 110:	6564                	flw	fs1,76(a0)
 112:	7379732f          	0x7379732f
  la x26, _bss_start
 116:	0000                	unimp
  la x27, _bss_end
 118:	656c                	flw	fa1,76(a0)
 11a:	2e64                	fld	fs1,216(a2)
  bge x26, x27, zero_loop_end
 11c:	00000063          	beqz	zero,11c <_start+0x8>
  sw x0, 0(x26)
 120:	5f00                	lw	s0,56(a4)
 122:	6564                	flw	fs1,76(a0)
  addi x26, x26, 4
 124:	6166                	flw	ft2,88(sp)
 126:	6c75                	lui	s8,0x1d
  ble x26, x27, zero_loop
 128:	5f74                	lw	a3,124(a4)
 12a:	7974                	flw	fa3,116(a0)
  addi x10, x0, 0
 12c:	6570                	flw	fa2,76(a0)
 12e:	00682e73          	csrrs	t3,0x6,a6
  addi x11, x0, 0
 132:	0001                	nop
  jal x1, main
 134:	5f00                	lw	s0,56(a4)
 136:	69647473          	csrrci	s0,0x696,8
  *var = 0;
 13a:	746e                	flw	fs0,248(sp)
  asm volatile(
 13c:	682e                	flw	fa6,200(sp)
 13e:	0200                	addi	s0,sp,256
  *var = 0;
 140:	0000                	unimp
 142:	0500                	addi	s0,sp,640
  asm volatile(
 144:	0021                	c.nop	8
 146:	0205                	addi	tp,tp,1
    *var = *var + 1;
 148:	0138                	addi	a4,sp,136
 14a:	0000                	unimp
  asm volatile(
 14c:	05012403          	lw	s0,80(sp) # 1001105c <_stack_start+0x1000105c>
 150:	09010303          	lb	t1,144(sp)
 154:	0000                	unimp
 156:	0301                	addi	t1,t1,0
 158:	0901                	addi	s2,s2,0
 15a:	0000                	unimp
 15c:	0501                	addi	a0,a0,0
 15e:	0608                	addi	a0,sp,768
 160:	00090003          	lb	zero,0(s2)
 164:	0100                	addi	s0,sp,128
 166:	0305                	addi	t1,t1,1
    *var = *var + 1;
 168:	04096603          	0x4096603
 16c:	0100                	addi	s0,sp,128
 16e:	0805                	addi	a6,a6,1
 170:	04091a03          	lh	s4,64(s2)
 174:	0100                	addi	s0,sp,128
 176:	0305                	addi	t1,t1,1
 178:	04096603          	0x4096603
 17c:	0100                	addi	s0,sp,128
 17e:	0c05                	addi	s8,s8,1
 180:	04091f03          	lh	t5,64(s2)
 184:	0100                	addi	s0,sp,128
 186:	0305                	addi	t1,t1,1
 188:	0200                	addi	s0,sp,256
 18a:	0104                	addi	s1,sp,128
 18c:	0306                	slli	t1,t1,0x1
 18e:	097d                	addi	s2,s2,31
 190:	0004                	0x4
 192:	0501                	addi	a0,a0,0
 194:	0005                	c.nop	1
 196:	0402                	c.slli64	s0
 198:	0301                	addi	t1,t1,0
 19a:	0902                	c.slli64	s2
 19c:	0000                	unimp
 19e:	0501                	addi	a0,a0,0
 1a0:	04020003          	lb	zero,64(tp) # ffff8040 <_stack_start+0xfffe8040>
 1a4:	0301                	addi	t1,t1,0
 1a6:	00000977          	0x977
 1aa:	0001                	nop
 1ac:	0402                	c.slli64	s0
 1ae:	0301                	addi	t1,t1,0
 1b0:	0978                	addi	a4,sp,156
 1b2:	0000                	unimp
 1b4:	0001                	nop
 1b6:	0402                	c.slli64	s0
 1b8:	0301                	addi	t1,t1,0
 1ba:	0901                	addi	s2,s2,0
 1bc:	0000                	unimp
 1be:	0001                	nop
 1c0:	0402                	c.slli64	s0
 1c2:	0301                	addi	t1,t1,0
 1c4:	0902                	c.slli64	s2
 1c6:	0000                	unimp
 1c8:	0001                	nop
 1ca:	0402                	c.slli64	s0
 1cc:	0301                	addi	t1,t1,0
 1ce:	0000096f          	jal	s2,1ce <__DTOR_END__+0x46>
 1d2:	0001                	nop
 1d4:	0402                	c.slli64	s0
 1d6:	0301                	addi	t1,t1,0
 1d8:	0901                	addi	s2,s2,0
 1da:	0000                	unimp
 1dc:	0001                	nop
 1de:	0402                	c.slli64	s0
 1e0:	0301                	addi	t1,t1,0
 1e2:	0911                	addi	s2,s2,4
 1e4:	001c                	0x1c
 1e6:	0501                	addi	a0,a0,0
 1e8:	0005                	c.nop	1
 1ea:	0402                	c.slli64	s0
 1ec:	0301                	addi	t1,t1,0
 1ee:	090e                	slli	s2,s2,0x3
 1f0:	0000                	unimp
 1f2:	0501                	addi	a0,a0,0
 1f4:	000c                	0xc
 1f6:	0402                	c.slli64	s0
 1f8:	0601                	addi	a2,a2,0
 1fa:	00090003          	lb	zero,0(s2)
 1fe:	0100                	addi	s0,sp,128
 200:	1105                	addi	sp,sp,-31
 202:	0200                	addi	s0,sp,256
 204:	0104                	addi	s1,sp,128
 206:	04090003          	lb	zero,64(s2)
 20a:	0100                	addi	s0,sp,128
 20c:	0a05                	addi	s4,s4,1
 20e:	0200                	addi	s0,sp,256
 210:	0104                	addi	s1,sp,128
 212:	04090003          	lb	zero,64(s2)
 216:	0100                	addi	s0,sp,128
 218:	0809                	addi	a6,a6,2
 21a:	0000                	unimp
 21c:	0101                	addi	sp,sp,0
 21e:	0150                	addi	a2,sp,132
 220:	0000                	unimp
 222:	001d0003          	lb	zero,1(s10)
 226:	0000                	unimp
 228:	0101                	addi	sp,sp,0
 22a:	000d0efb          	0xd0efb
 22e:	0101                	addi	sp,sp,0
 230:	0101                	addi	sp,sp,0
 232:	0000                	unimp
 234:	0100                	addi	s0,sp,128
 236:	0000                	unimp
 238:	0001                	nop
 23a:	30747263          	bgeu	s0,t2,53e <__DTOR_END__+0x3b6>
 23e:	532e                	lw	t1,232(sp)
 240:	0000                	unimp
 242:	0000                	unimp
 244:	0000                	unimp
 246:	0205                	addi	tp,tp,1
 248:	008c                	addi	a1,sp,64
 24a:	0000                	unimp
 24c:	0315                	addi	t1,t1,5
 24e:	0904                	addi	s1,sp,144
 250:	0004                	0x4
 252:	0301                	addi	t1,t1,0
 254:	0901                	addi	s2,s2,0
 256:	0004                	0x4
 258:	0301                	addi	t1,t1,0
 25a:	0901                	addi	s2,s2,0
 25c:	0004                	0x4
 25e:	0301                	addi	t1,t1,0
 260:	0901                	addi	s2,s2,0
 262:	0004                	0x4
 264:	0301                	addi	t1,t1,0
 266:	0901                	addi	s2,s2,0
 268:	0004                	0x4
 26a:	0301                	addi	t1,t1,0
 26c:	0901                	addi	s2,s2,0
 26e:	0004                	0x4
 270:	0301                	addi	t1,t1,0
 272:	0901                	addi	s2,s2,0
 274:	0004                	0x4
 276:	0301                	addi	t1,t1,0
 278:	0901                	addi	s2,s2,0
 27a:	0004                	0x4
 27c:	0301                	addi	t1,t1,0
 27e:	0901                	addi	s2,s2,0
 280:	0004                	0x4
 282:	0301                	addi	t1,t1,0
 284:	0901                	addi	s2,s2,0
 286:	0004                	0x4
 288:	0301                	addi	t1,t1,0
 28a:	0901                	addi	s2,s2,0
 28c:	0004                	0x4
 28e:	0301                	addi	t1,t1,0
 290:	0901                	addi	s2,s2,0
 292:	0004                	0x4
 294:	0301                	addi	t1,t1,0
 296:	0901                	addi	s2,s2,0
 298:	0004                	0x4
 29a:	0301                	addi	t1,t1,0
 29c:	0901                	addi	s2,s2,0
 29e:	0004                	0x4
 2a0:	0301                	addi	t1,t1,0
 2a2:	0901                	addi	s2,s2,0
 2a4:	0004                	0x4
 2a6:	0301                	addi	t1,t1,0
 2a8:	0901                	addi	s2,s2,0
 2aa:	0004                	0x4
 2ac:	0301                	addi	t1,t1,0
 2ae:	0901                	addi	s2,s2,0
 2b0:	0004                	0x4
 2b2:	0301                	addi	t1,t1,0
 2b4:	0901                	addi	s2,s2,0
 2b6:	0004                	0x4
 2b8:	0301                	addi	t1,t1,0
 2ba:	0901                	addi	s2,s2,0
 2bc:	0004                	0x4
 2be:	0301                	addi	t1,t1,0
 2c0:	0901                	addi	s2,s2,0
 2c2:	0004                	0x4
 2c4:	0301                	addi	t1,t1,0
 2c6:	0901                	addi	s2,s2,0
 2c8:	0004                	0x4
 2ca:	0301                	addi	t1,t1,0
 2cc:	0901                	addi	s2,s2,0
 2ce:	0004                	0x4
 2d0:	0301                	addi	t1,t1,0
 2d2:	0901                	addi	s2,s2,0
 2d4:	0004                	0x4
 2d6:	0301                	addi	t1,t1,0
 2d8:	0901                	addi	s2,s2,0
 2da:	0004                	0x4
 2dc:	0301                	addi	t1,t1,0
 2de:	0901                	addi	s2,s2,0
 2e0:	0004                	0x4
 2e2:	0301                	addi	t1,t1,0
 2e4:	0901                	addi	s2,s2,0
 2e6:	0004                	0x4
 2e8:	0301                	addi	t1,t1,0
 2ea:	0901                	addi	s2,s2,0
 2ec:	0004                	0x4
 2ee:	0301                	addi	t1,t1,0
 2f0:	0901                	addi	s2,s2,0
 2f2:	0004                	0x4
 2f4:	0301                	addi	t1,t1,0
 2f6:	0901                	addi	s2,s2,0
 2f8:	0004                	0x4
 2fa:	0301                	addi	t1,t1,0
 2fc:	0901                	addi	s2,s2,0
 2fe:	0004                	0x4
 300:	0301                	addi	t1,t1,0
 302:	0901                	addi	s2,s2,0
 304:	0004                	0x4
 306:	0301                	addi	t1,t1,0
 308:	00040903          	lb	s2,0(s0)
 30c:	0301                	addi	t1,t1,0
 30e:	0906                	slli	s2,s2,0x1
 310:	0008                	0x8
 312:	0301                	addi	t1,t1,0
 314:	0901                	addi	s2,s2,0
 316:	0004                	0x4
 318:	0301                	addi	t1,t1,0
 31a:	0902                	c.slli64	s2
 31c:	0004                	0x4
 31e:	0301                	addi	t1,t1,0
 320:	00040903          	lb	s2,0(s0)
 324:	0301                	addi	t1,t1,0
 326:	0901                	addi	s2,s2,0
 328:	0004                	0x4
 32a:	0301                	addi	t1,t1,0
 32c:	0901                	addi	s2,s2,0
 32e:	0004                	0x4
 330:	0301                	addi	t1,t1,0
 332:	0906                	slli	s2,s2,0x1
 334:	0004                	0x4
 336:	0301                	addi	t1,t1,0
 338:	0901                	addi	s2,s2,0
 33a:	0004                	0x4
 33c:	0301                	addi	t1,t1,0
 33e:	0901                	addi	s2,s2,0
 340:	0004                	0x4
 342:	0901                	addi	s2,s2,0
 344:	0004                	0x4
 346:	0100                	addi	s0,sp,128
 348:	0001                	nop
 34a:	0205                	addi	tp,tp,1
 34c:	0000                	unimp
 34e:	0000                	unimp
 350:	0100cb03          	lbu	s6,16(ra)
 354:	7c090103          	lb	sp,1984(s2)
 358:	0100                	addi	s0,sp,128
 35a:	04090403          	lb	s0,64(s2)
 35e:	0100                	addi	s0,sp,128
 360:	04090403          	lb	s0,64(s2)
 364:	0100                	addi	s0,sp,128
 366:	04090403          	lb	s0,64(s2)
 36a:	0100                	addi	s0,sp,128
 36c:	0409                	addi	s0,s0,2
 36e:	0000                	unimp
 370:	0101                	addi	sp,sp,0

Disassembly of section .debug_str:

00000000 <.debug_str>:
  .endr
   0:	7375                	lui	t1,0xffffd
   2:	6365                	lui	t1,0x19
   4:	7500                	flw	fs0,40(a0)
   6:	65656c73          	csrrsi	s8,0x656,10
   a:	0070                	addi	a2,sp,12
   c:	6f6c                	flw	fa1,92(a4)
   e:	0073706f          	j	37814 <_stack_start+0x27814>
  12:	6e75                	lui	t3,0x1d
  14:	6e676973          	csrrsi	s2,0x6e6,14
  18:	6465                	lui	s0,0x19
  1a:	6320                	flw	fs0,64(a4)
  1c:	6168                	flw	fa0,68(a0)
  1e:	0072                	c.slli	zero,0x1c
  20:	6d6f682f          	0x6d6f682f
  24:	2f65                	jal	7dc <__DTOR_END__+0x654>
  26:	622f4343          	fmadd.d	ft6,ft10,ft2,fa2,rmm
  2a:	6562                	flw	fa0,24(sp)
  2c:	7375                	lui	t1,0xffffd
  2e:	6574                	flw	fa3,76(a0)
  30:	2f72                	fld	ft10,280(sp)
  32:	7250                	flw	fa2,36(a2)
  34:	63656a6f          	jal	s4,5666a <_stack_start+0x4666a>
  38:	7374                	flw	fa3,100(a4)
  3a:	7469672f          	0x7469672f
  3e:	7568                	flw	fa0,108(a0)
  40:	2e62                	fld	ft8,24(sp)
  42:	2f6d6f63          	bltu	s10,s6,340 <__DTOR_END__+0x1b8>
  46:	6270                	flw	fa2,68(a2)
  48:	6e69                	lui	t3,0x1a
  4a:	62692f67          	0x62692f67
  4e:	7865                	lui	a6,0xffff9
  50:	775f 2f62 6f73      	0x6f732f62775f
  56:	70662f63          	0x70662f63
  5a:	612f6167          	0x612f6167
  5e:	7472                	flw	fs0,60(sp)
  60:	2d79                	jal	6fe <__DTOR_END__+0x576>
  62:	3761                	jal	ffffffea <_stack_start+0xfffeffea>
  64:	312d                	jal	fffffc8e <_stack_start+0xfffefc8e>
  66:	3030                	fld	fa2,96(s0)
  68:	2f77732f          	0x2f77732f
  6c:	656c                	flw	fa1,76(a0)
  6e:	0064                	addi	s1,sp,12
  70:	726f6873          	csrrsi	a6,0x726,30
  74:	2074                	fld	fa3,192(s0)
  76:	6e75                	lui	t3,0x1d
  78:	6e676973          	csrrsi	s2,0x6e6,14
  jal x0, default_exc_handler
  7c:	6465                	lui	s0,0x19
  7e:	6920                	flw	fs0,80(a0)
  jal x0, reset_handler
  80:	746e                	flw	fs0,248(sp)
  82:	6c00                	flw	fs0,24(s0)
  jal x0, default_exc_handler
  84:	6465                	lui	s0,0x19
  86:	632e                	flw	ft6,200(sp)
  jal x0, default_exc_handler
  88:	5f00                	lw	s0,56(a4)
  8a:	755f 6e69 3374      	0x33746e69755f
  mv  x1, x0
  90:	5f32                	lw	t5,44(sp)
  92:	0074                	addi	a3,sp,12
  mv  x2, x1
  94:	616d                	addi	sp,sp,240
  96:	6e69                	lui	t3,0x1a
  mv  x3, x1
  98:	7500                	flw	fs0,40(a0)
  9a:	5f636573          	csrrsi	a0,0x5f6,6
  mv  x4, x1
  9e:	6c637963          	bgeu	t1,t1,770 <__DTOR_END__+0x5e8>
  mv  x5, x1
  a2:	7365                	lui	t1,0xffff9
  mv  x6, x1
  a4:	6c00                	flw	fs0,24(s0)
  a6:	20676e6f          	jal	t3,762ac <_stack_start+0x662ac>
  mv  x7, x1
  aa:	6f6c                	flw	fa1,92(a4)
  mv  x8, x1
  ac:	676e                	flw	fa4,216(sp)
  ae:	7520                	flw	fs0,104(a0)
  mv  x9, x1
  b0:	736e                	flw	ft6,248(sp)
  b2:	6769                	lui	a4,0x1a
  mv x10, x1
  b4:	656e                	flw	fa0,216(sp)
  b6:	2064                	fld	fs1,192(s0)
  mv x11, x1
  b8:	6e69                	lui	t3,0x1a
  ba:	0074                	addi	a3,sp,12
  mv x12, x1
  bc:	7261                	lui	tp,0xffff8
  be:	64006367          	0x64006367
  mv x13, x1
  c2:	6c65                	lui	s8,0x19
  mv x14, x1
  c4:	7961                	lui	s2,0xffff8
  c6:	6c5f 6f6f 5f70      	0x5f706f6f6c5f
  mv x16, x1
  cc:	6269                	lui	tp,0x1a
  ce:	7865                	lui	a6,0xffff9
  mv x17, x1
  d0:	6c00                	flw	fs0,24(s0)
  d2:	20676e6f          	jal	t3,762d8 <_stack_start+0x662d8>
  mv x18, x1
  d6:	6f6c                	flw	fa1,92(a4)
  mv x19, x1
  d8:	676e                	flw	fa4,216(sp)
  da:	6920                	flw	fs0,80(a0)
  mv x20, x1
  dc:	746e                	flw	fs0,248(sp)
  de:	7300                	flw	fs0,32(a4)
  mv x21, x1
  e0:	6f68                	flw	fa0,92(a4)
  e2:	7472                	flw	fs0,60(sp)
  mv x22, x1
  e4:	6920                	flw	fs0,80(a0)
  e6:	746e                	flw	fs0,248(sp)
  mv x23, x1
  e8:	6100                	flw	fs0,0(a0)
  ea:	6772                	flw	fa4,28(sp)
  mv x24, x1
  ec:	0076                	c.slli	zero,0x1d
  ee:	20554e47          	fmsub.s	ft8,fa0,ft5,ft4,rmm
  mv x25, x1
  f2:	20373143          	fmadd.s	ft2,fa4,ft3,ft4,rup
  mv x26, x1
  f6:	2e38                	fld	fa4,88(a2)
  mv x27, x1
  f8:	20302e33          	0x20302e33
  mv x28, x1
  fc:	6d2d                	lui	s10,0xb
  fe:	7261                	lui	tp,0xffff8
  mv x29, x1
 100:	723d6863          	bltu	s10,gp,830 <__DTOR_END__+0x6a8>
  mv x30, x1
 104:	3376                	fld	ft6,376(sp)
 106:	6932                	flw	fs2,12(sp)
  mv x31, x1
 108:	206d                	jal	1b2 <__DTOR_END__+0x2a>
 10a:	6d2d                	lui	s10,0xb
  la   x2, _stack_start
 10c:	6261                	lui	tp,0x18
 10e:	3d69                	jal	ffffffa8 <_stack_start+0xfffeffa8>
 110:	6c69                	lui	s8,0x1a
 112:	3370                	fld	fa2,224(a4)
  la x26, _bss_start
 114:	2032                	fld	ft0,264(sp)
 116:	6d2d                	lui	s10,0xb
  la x27, _bss_end
 118:	646f6d63          	bltu	t5,t1,772 <__DTOR_END__+0x5ea>
  bge x26, x27, zero_loop_end
 11c:	6c65                	lui	s8,0x19
 11e:	6d3d                	lui	s10,0xf
  sw x0, 0(x26)
 120:	6465                	lui	s0,0x19
 122:	6e61                	lui	t3,0x18
  addi x26, x26, 4
 124:	2079                	jal	1b2 <__DTOR_END__+0x2a>
 126:	672d                	lui	a4,0xb
  ble x26, x27, zero_loop
 128:	2d20                	fld	fs0,88(a0)
 12a:	2d20734f          	0x2d20734f
  addi x10, x0, 0
 12e:	7666                	flw	fa2,120(sp)
  addi x11, x0, 0
 130:	7369                	lui	t1,0xffffa
 132:	6269                	lui	tp,0x1a
  jal x1, main
 134:	6c69                	lui	s8,0x1a
 136:	7469                	lui	s0,0xffffa
  *var = 0;
 138:	3d79                	jal	ffffffd6 <_stack_start+0xfffeffd6>
 13a:	6968                	flw	fa0,84(a0)
  asm volatile(
 13c:	6464                	flw	fs1,76(s0)
 13e:	6e65                	lui	t3,0x19
  *var = 0;
 140:	7500                	flw	fs0,40(a0)
 142:	65656c73          	csrrsi	s8,0x656,10
  asm volatile(
 146:	5f70                	lw	a2,124(a4)
    *var = *var + 1;
 148:	6269                	lui	tp,0x1a
 14a:	7865                	lui	a6,0xffff9
  asm volatile(
 14c:	6300                	flw	fs0,0(a4)
 14e:	7472                	flw	fs0,60(sp)
 150:	2e30                	fld	fa2,88(a2)
 152:	4e470053          	0x4e470053
 156:	2055                	jal	1fa <__DTOR_END__+0x72>
 158:	5341                	li	t1,-16
 15a:	3220                	fld	fs0,96(a2)
 15c:	332e                	fld	ft6,232(sp)
 15e:	0032                	c.slli	zero,0xc

Disassembly of section .comment:

00000000 <.comment>:
  .endr
   0:	3a434347          	fmsub.d	ft6,ft6,ft4,ft7,rmm
   4:	2820                	fld	fs0,80(s0)
   6:	69466953          	0x69466953
   a:	6576                	flw	fa0,92(sp)
   c:	4720                	lw	s0,72(a4)
   e:	38204343          	fmadd.s	ft6,ft0,ft2,ft7,rmm
  12:	332e                	fld	ft6,232(sp)
  14:	302e                	fld	ft0,232(sp)
  16:	322d                	jal	fffff940 <_stack_start+0xfffef940>
  18:	3130                	fld	fa2,96(a0)
  1a:	2e39                	jal	338 <__DTOR_END__+0x1b0>
  1c:	3830                	fld	fa2,112(s0)
  1e:	302e                	fld	ft0,232(sp)
  20:	2029                	jal	2a <__DYNAMIC+0x2a>
  22:	2e38                	fld	fa4,88(a2)
  24:	00302e33          	sgtz	t3,gp

Disassembly of section .riscv.attributes:

00000000 <.riscv.attributes>:
   0:	2041                	jal	80 <__DYNAMIC+0x80>
   2:	0000                	unimp
   4:	7200                	flw	fs0,32(a2)
   6:	7369                	lui	t1,0xffffa
   8:	01007663          	bgeu	zero,a6,14 <__DYNAMIC+0x14>
   c:	0016                	c.slli	zero,0x5
   e:	0000                	unimp
  10:	1004                	addi	s1,sp,32
  12:	7205                	lui	tp,0xfffe1
  14:	3376                	fld	ft6,376(sp)
  16:	6932                	flw	fs2,12(sp)
  18:	7032                	flw	ft0,44(sp)
  1a:	5f30                	lw	a2,120(a4)
  1c:	326d                	jal	fffff9c6 <_stack_start+0xfffef9c6>
  1e:	3070                	fld	fa2,224(s0)
	...

Disassembly of section .debug_frame:

00000000 <.debug_frame>:
   0:	000c                	0xc
   2:	0000                	unimp
   4:	ffff                	0xffff
   6:	ffff                	0xffff
   8:	0001                	nop
   a:	7c01                	lui	s8,0xfffe0
   c:	0d01                	addi	s10,s10,0
   e:	0002                	c.slli64	zero
  10:	000c                	0xc
  12:	0000                	unimp
  14:	0000                	unimp
  16:	0000                	unimp
  18:	0138                	addi	a4,sp,136
  1a:	0000                	unimp
  1c:	0040                	addi	s0,sp,4
	...
