
crc_32.elf:     file format elf32-littleriscv


Disassembly of section .vectors:

00000000 <_stack_start-0x10000>:
  // external interrupts are handled by the same callback
  // until compiler supports IRQ routines
  .org 0x00
  .rept 31
  nop
  .endr
   0:	00000013          	nop
   4:	00000013          	nop
   8:	00000013          	nop
   c:	00000013          	nop
  10:	00000013          	nop
  14:	00000013          	nop
  18:	00000013          	nop
  1c:	00000013          	nop
  20:	00000013          	nop
  24:	00000013          	nop
  28:	00000013          	nop
  2c:	00000013          	nop
  30:	00000013          	nop
  34:	00000013          	nop
  38:	00000013          	nop
  3c:	00000013          	nop
  40:	00000013          	nop
  44:	00000013          	nop
  48:	00000013          	nop
  4c:	00000013          	nop
  50:	00000013          	nop
  54:	00000013          	nop
  58:	00000013          	nop
  5c:	00000013          	nop
  60:	00000013          	nop
  64:	00000013          	nop
  68:	00000013          	nop
  6c:	00000013          	nop
  70:	00000013          	nop
  74:	00000013          	nop
  78:	00000013          	nop
  jal x0, default_exc_handler
  7c:	1860006f          	j	202 <default_exc_handler>

  // reset vector
  .org 0x80
  jal x0, reset_handler
  80:	1860006f          	j	206 <reset_handler>

  // illegal instruction exception
  .org 0x84
  jal x0, default_exc_handler
  84:	17e0006f          	j	202 <default_exc_handler>

  // ecall handler
  .org 0x88
  jal x0, default_exc_handler
  88:	17a0006f          	j	202 <default_exc_handler>

Disassembly of section .text:

0000008c <crc32pseudo>:
};


DWORD
crc32pseudo ()
{
  8c:	1141                	addi	sp,sp,-16
  8e:	c422                	sw	s0,8(sp)
  90:	c226                	sw	s1,4(sp)
  92:	c04a                	sw	s2,0(sp)
  94:	c606                	sw	ra,12(sp)
  96:	40000493          	li	s1,1024
  int i;
  register DWORD oldcrc32;

  oldcrc32 = 0xFFFFFFFF;
  9a:	547d                	li	s0,-1

  for (i = 0; i < 1024; ++i)
    {
      oldcrc32 = UPDC32 (rand_beebs (), oldcrc32);
  9c:	37c00913          	li	s2,892
  a0:	20a5                	jal	108 <rand_beebs>
  a2:	8d21                	xor	a0,a0,s0
  a4:	0ff57513          	andi	a0,a0,255
  a8:	050a                	slli	a0,a0,0x2
  aa:	954a                	add	a0,a0,s2
  ac:	411c                	lw	a5,0(a0)
  ae:	8021                	srli	s0,s0,0x8
  b0:	14fd                	addi	s1,s1,-1
  b2:	8c3d                	xor	s0,s0,a5
  for (i = 0; i < 1024; ++i)
  b4:	f4f5                	bnez	s1,a0 <crc32pseudo+0x14>
    }

  return ~oldcrc32;
}
  b6:	fff44513          	not	a0,s0
  ba:	40b2                	lw	ra,12(sp)
  bc:	4422                	lw	s0,8(sp)
  be:	4492                	lw	s1,4(sp)
  c0:	4902                	lw	s2,0(sp)
  c2:	0141                	addi	sp,sp,16
  c4:	8082                	ret

000000c6 <benchmark_body>:
}


static int __attribute__ ((noinline))
benchmark_body (int rpt)
{
  c6:	1141                	addi	sp,sp,-16
  c8:	c422                	sw	s0,8(sp)
  ca:	c226                	sw	s1,4(sp)
  cc:	c606                	sw	ra,12(sp)
  ce:	84aa                	mv	s1,a0
  int i;
  DWORD r;

  for (i = 0; i < rpt; i++)
  d0:	4401                	li	s0,0
  d2:	00944a63          	blt	s0,s1,e6 <benchmark_body+0x20>
      srand_beebs (0);
      r = crc32pseudo ();
    }

  return (int) (r % 32768);
}
  d6:	40b2                	lw	ra,12(sp)
  d8:	4422                	lw	s0,8(sp)
  return (int) (r % 32768);
  da:	01179513          	slli	a0,a5,0x11
}
  de:	4492                	lw	s1,4(sp)
  e0:	8145                	srli	a0,a0,0x11
  e2:	0141                	addi	sp,sp,16
  e4:	8082                	ret
      srand_beebs (0);
  e6:	4501                	li	a0,0
  e8:	2091                	jal	12c <srand_beebs>
      r = crc32pseudo ();
  ea:	374d                	jal	8c <crc32pseudo>
  ec:	87aa                	mv	a5,a0
  for (i = 0; i < rpt; i++)
  ee:	0405                	addi	s0,s0,1
  f0:	b7cd                	j	d2 <benchmark_body+0xc>

000000f2 <initialise_benchmark>:
}
  f2:	8082                	ret

000000f4 <warm_caches>:
  int  res = benchmark_body (heat);
  f4:	bfc9                	j	c6 <benchmark_body>

000000f6 <benchmark>:
  return benchmark_body (LOCAL_SCALE_FACTOR * CPU_MHZ);
  f6:	4505                	li	a0,1
  f8:	b7f9                	j	c6 <benchmark_body>

000000fa <verify_benchmark>:


int
verify_benchmark (int r)
{
  return 11433 == r;
  fa:	77f5                	lui	a5,0xffffd
  fc:	35778793          	addi	a5,a5,855 # ffffd357 <_stack_start+0xfffed357>
 100:	953e                	add	a0,a0,a5
}
 102:	00153513          	seqz	a0,a0
 106:	8082                	ret

00000108 <rand_beebs>:
   multipliers and offsets and RAND_MAX variations. */

int
rand_beebs (void)
{
  seed = (seed * 1103515245L + 12345) & ((1UL << 31) - 1);
 108:	78800713          	li	a4,1928
 10c:	4308                	lw	a0,0(a4)
 10e:	41c657b7          	lui	a5,0x41c65
 112:	e6d78793          	addi	a5,a5,-403 # 41c64e6d <_stack_start+0x41c54e6d>
 116:	02f50533          	mul	a0,a0,a5
 11a:	678d                	lui	a5,0x3
 11c:	03978793          	addi	a5,a5,57 # 3039 <_min_stack+0x1039>
 120:	953e                	add	a0,a0,a5
 122:	0506                	slli	a0,a0,0x1
 124:	8105                	srli	a0,a0,0x1
 126:	c308                	sw	a0,0(a4)
  return (int) (seed >> 16);
}
 128:	8141                	srli	a0,a0,0x10
 12a:	8082                	ret

0000012c <srand_beebs>:
/* Initialize the random number generator */

void
srand_beebs (unsigned int new_seed)
{
  seed = (long int) new_seed;
 12c:	78a02423          	sw	a0,1928(zero) # 788 <seed>
}
 130:	8082                	ret

00000132 <init_heap_beebs>:

void
init_heap_beebs (void *heap, size_t heap_size)
{
  heap_ptr = (void *) heap;
  heap_end = (void *) ((char *) heap_ptr + heap_size);
 132:	95aa                	add	a1,a1,a0
  heap_ptr = (void *) heap;
 134:	78a02223          	sw	a0,1924(zero) # 784 <heap_ptr>
  heap_end = (void *) ((char *) heap_ptr + heap_size);
 138:	78b02023          	sw	a1,1920(zero) # 780 <heap_end>
  heap_requested = 0;
 13c:	76002e23          	sw	zero,1916(zero) # 77c <_edata>
}
 140:	8082                	ret

00000142 <check_heap_beebs>:
   since the last call to init_heap_beebs, zero (FALSE) otherwise. */

int
check_heap_beebs (void *heap)
{
  return ((void *) ((char *) heap + heap_requested) <= heap_end);
 142:	77c00793          	li	a5,1916
 146:	439c                	lw	a5,0(a5)
 148:	953e                	add	a0,a0,a5
 14a:	78000793          	li	a5,1920
 14e:	439c                	lw	a5,0(a5)
 150:	00a7b533          	sltu	a0,a5,a0
}
 154:	00154513          	xori	a0,a0,1
 158:	8082                	ret

0000015a <malloc_beebs>:
void *
malloc_beebs (size_t size)
{
  void *new_ptr = heap_ptr;

  heap_requested += size;
 15a:	77c00713          	li	a4,1916
 15e:	4318                	lw	a4,0(a4)
  void *new_ptr = heap_ptr;
 160:	78400793          	li	a5,1924
 164:	439c                	lw	a5,0(a5)
  heap_requested += size;
 166:	972a                	add	a4,a4,a0
 168:	76e02e23          	sw	a4,1916(zero) # 77c <_edata>

  if (((void *) ((char *) heap_ptr + size) > heap_end) || (0 == size))
 16c:	78000693          	li	a3,1920
 170:	4294                	lw	a3,0(a3)
 172:	00a78733          	add	a4,a5,a0
 176:	00e6e763          	bltu	a3,a4,184 <malloc_beebs+0x2a>
 17a:	c509                	beqz	a0,184 <malloc_beebs+0x2a>
    return NULL;
  else
    {
      heap_ptr = (void *) ((char *) heap_ptr + size);
 17c:	78e02223          	sw	a4,1924(zero) # 784 <heap_ptr>
      return new_ptr;
    }
}
 180:	853e                	mv	a0,a5
 182:	8082                	ret
    return NULL;
 184:	4781                	li	a5,0
 186:	bfed                	j	180 <malloc_beebs+0x26>

00000188 <calloc_beebs>:
   Implement as wrapper for malloc */

void *
calloc_beebs (size_t nmemb, size_t size)
{
  void *new_ptr = malloc_beebs (nmemb * size);
 188:	02b50633          	mul	a2,a0,a1
{
 18c:	1101                	addi	sp,sp,-32
 18e:	cc22                	sw	s0,24(sp)
 190:	ce06                	sw	ra,28(sp)
  void *new_ptr = malloc_beebs (nmemb * size);
 192:	8532                	mv	a0,a2
 194:	c632                	sw	a2,12(sp)
 196:	37d1                	jal	15a <malloc_beebs>
 198:	842a                	mv	s0,a0

  /* Calloc is defined to zero the memory. OK to use a function here, because
     it will be handled specially by the compiler anyway. */

  if (NULL != new_ptr)
 19a:	c501                	beqz	a0,1a2 <calloc_beebs+0x1a>
    memset (new_ptr, 0, nmemb * size);
 19c:	4632                	lw	a2,12(sp)
 19e:	4581                	li	a1,0
 1a0:	28c1                	jal	270 <memset>

  return new_ptr;
}
 1a2:	8522                	mv	a0,s0
 1a4:	40f2                	lw	ra,28(sp)
 1a6:	4462                	lw	s0,24(sp)
 1a8:	6105                	addi	sp,sp,32
 1aa:	8082                	ret

000001ac <realloc_beebs>:
void *
realloc_beebs (void *ptr, size_t size)
{
  void *new_ptr = heap_ptr;

  heap_requested += size;
 1ac:	77c00713          	li	a4,1916
 1b0:	4318                	lw	a4,0(a4)
  void *new_ptr = heap_ptr;
 1b2:	78400793          	li	a5,1924
 1b6:	439c                	lw	a5,0(a5)
  heap_requested += size;
 1b8:	972e                	add	a4,a4,a1
 1ba:	76e02e23          	sw	a4,1916(zero) # 77c <_edata>

  if (((void *) ((char *) heap_ptr + size) > heap_end) || (0 == size))
 1be:	78000693          	li	a3,1920
 1c2:	4294                	lw	a3,0(a3)
 1c4:	00b78733          	add	a4,a5,a1
 1c8:	02e6e463          	bltu	a3,a4,1f0 <realloc_beebs+0x44>
 1cc:	c195                	beqz	a1,1f0 <realloc_beebs+0x44>
    return NULL;
  else
    {
      heap_ptr = (void *) ((char *) heap_ptr + size);
 1ce:	78e02223          	sw	a4,1924(zero) # 784 <heap_ptr>
      /* This is clunky, since we don't know the size of the original
         pointer. However it is a read only action and we know it must
         be big enough if we right off the end, or we couldn't have
         allocated here. If the size is smaller, it doesn't matter. */

      if (NULL != ptr)
 1d2:	cd09                	beqz	a0,1ec <realloc_beebs+0x40>
	{
	  size_t i;

	  for (i = 0; i < size; i++)
 1d4:	4701                	li	a4,0
	    ((char *) new_ptr)[i] = ((char *) ptr)[i];
 1d6:	00e506b3          	add	a3,a0,a4
 1da:	0006c603          	lbu	a2,0(a3)
 1de:	00e786b3          	add	a3,a5,a4
	  for (i = 0; i < size; i++)
 1e2:	0705                	addi	a4,a4,1
	    ((char *) new_ptr)[i] = ((char *) ptr)[i];
 1e4:	00c68023          	sb	a2,0(a3)
	  for (i = 0; i < size; i++)
 1e8:	fee597e3          	bne	a1,a4,1d6 <realloc_beebs+0x2a>
	}

      return new_ptr;
    }
}
 1ec:	853e                	mv	a0,a5
 1ee:	8082                	ret
    return NULL;
 1f0:	4781                	li	a5,0
 1f2:	bfed                	j	1ec <realloc_beebs+0x40>

000001f4 <free_beebs>:
   For our simplified version of memory handling, free can just do nothing. */

void
free_beebs (void *ptr __attribute__ ((unused)))
{
}
 1f4:	8082                	ret

000001f6 <initialise_board>:
//#include <support.h>

void
initialise_board ()
{
  __asm__ volatile ("li a0, 0" : : : "memory");
 1f6:	4501                	li	a0,0
}
 1f8:	8082                	ret

000001fa <start_trigger>:

void __attribute__ ((noinline)) __attribute__ ((externally_visible))
start_trigger ()
{
  __asm__ volatile ("li a0, 0" : : : "memory");
 1fa:	4501                	li	a0,0
}
 1fc:	8082                	ret

000001fe <stop_trigger>:

void __attribute__ ((noinline)) __attribute__ ((externally_visible))
stop_trigger ()
{
  __asm__ volatile ("li a0, 0" : : : "memory");
 1fe:	4501                	li	a0,0
}
 200:	8082                	ret

00000202 <default_exc_handler>:
  jal x0, default_exc_handler
 202:	0000006f          	j	202 <default_exc_handler>

00000206 <reset_handler>:
  mv  x1, x0
 206:	00000093          	li	ra,0
  mv  x2, x1
 20a:	8106                	mv	sp,ra
  mv  x3, x1
 20c:	8186                	mv	gp,ra
  mv  x4, x1
 20e:	8206                	mv	tp,ra
  mv  x5, x1
 210:	8286                	mv	t0,ra
  mv  x6, x1
 212:	8306                	mv	t1,ra
  mv  x7, x1
 214:	8386                	mv	t2,ra
  mv  x8, x1
 216:	8406                	mv	s0,ra
  mv  x9, x1
 218:	8486                	mv	s1,ra
  mv x10, x1
 21a:	8506                	mv	a0,ra
  mv x11, x1
 21c:	8586                	mv	a1,ra
  mv x12, x1
 21e:	8606                	mv	a2,ra
  mv x13, x1
 220:	8686                	mv	a3,ra
  mv x14, x1
 222:	8706                	mv	a4,ra
  mv x15, x1
 224:	8786                	mv	a5,ra
  mv x16, x1
 226:	8806                	mv	a6,ra
  mv x17, x1
 228:	8886                	mv	a7,ra
  mv x18, x1
 22a:	8906                	mv	s2,ra
  mv x19, x1
 22c:	8986                	mv	s3,ra
  mv x20, x1
 22e:	8a06                	mv	s4,ra
  mv x21, x1
 230:	8a86                	mv	s5,ra
  mv x22, x1
 232:	8b06                	mv	s6,ra
  mv x23, x1
 234:	8b86                	mv	s7,ra
  mv x24, x1
 236:	8c06                	mv	s8,ra
  mv x25, x1
 238:	8c86                	mv	s9,ra
  mv x26, x1
 23a:	8d06                	mv	s10,ra
  mv x27, x1
 23c:	8d86                	mv	s11,ra
  mv x28, x1
 23e:	8e06                	mv	t3,ra
  mv x29, x1
 240:	8e86                	mv	t4,ra
  mv x30, x1
 242:	8f06                	mv	t5,ra
  mv x31, x1
 244:	8f86                	mv	t6,ra
  la   x2, _stack_start
 246:	00010117          	auipc	sp,0x10
 24a:	dba10113          	addi	sp,sp,-582 # 10000 <_stack_start>

0000024e <_start>:
  la x26, _bss_start
 24e:	77c00d13          	li	s10,1916
  la x27, _bss_end
 252:	78c00d93          	li	s11,1932
  bge x26, x27, zero_loop_end
 256:	01bd5763          	bge	s10,s11,264 <main_entry>

0000025a <zero_loop>:
  sw x0, 0(x26)
 25a:	000d2023          	sw	zero,0(s10)
  addi x26, x26, 4
 25e:	0d11                	addi	s10,s10,4
  ble x26, x27, zero_loop
 260:	ffaddde3          	bge	s11,s10,25a <zero_loop>

00000264 <main_entry>:
  addi x10, x0, 0
 264:	00000513          	li	a0,0
  addi x11, x0, 0
 268:	00000593          	li	a1,0
  jal x1, main
 26c:	0e0000ef          	jal	ra,34c <main>

00000270 <memset>:
 270:	00f00313          	li	t1,15
 274:	00050713          	mv	a4,a0
 278:	02c37e63          	bgeu	t1,a2,2b4 <memset+0x44>
 27c:	00f77793          	andi	a5,a4,15
 280:	0a079063          	bnez	a5,320 <memset+0xb0>
 284:	08059263          	bnez	a1,308 <memset+0x98>
 288:	ff067693          	andi	a3,a2,-16
 28c:	00f67613          	andi	a2,a2,15
 290:	00e686b3          	add	a3,a3,a4
 294:	00b72023          	sw	a1,0(a4)
 298:	00b72223          	sw	a1,4(a4)
 29c:	00b72423          	sw	a1,8(a4)
 2a0:	00b72623          	sw	a1,12(a4)
 2a4:	01070713          	addi	a4,a4,16
 2a8:	fed766e3          	bltu	a4,a3,294 <memset+0x24>
 2ac:	00061463          	bnez	a2,2b4 <memset+0x44>
 2b0:	00008067          	ret
 2b4:	40c306b3          	sub	a3,t1,a2
 2b8:	00269693          	slli	a3,a3,0x2
 2bc:	00000297          	auipc	t0,0x0
 2c0:	005686b3          	add	a3,a3,t0
 2c4:	00c68067          	jr	12(a3)
 2c8:	00b70723          	sb	a1,14(a4)
 2cc:	00b706a3          	sb	a1,13(a4)
 2d0:	00b70623          	sb	a1,12(a4)
 2d4:	00b705a3          	sb	a1,11(a4)
 2d8:	00b70523          	sb	a1,10(a4)
 2dc:	00b704a3          	sb	a1,9(a4)
 2e0:	00b70423          	sb	a1,8(a4)
 2e4:	00b703a3          	sb	a1,7(a4)
 2e8:	00b70323          	sb	a1,6(a4)
 2ec:	00b702a3          	sb	a1,5(a4)
 2f0:	00b70223          	sb	a1,4(a4)
 2f4:	00b701a3          	sb	a1,3(a4)
 2f8:	00b70123          	sb	a1,2(a4)
 2fc:	00b700a3          	sb	a1,1(a4)
 300:	00b70023          	sb	a1,0(a4)
 304:	00008067          	ret
 308:	0ff5f593          	andi	a1,a1,255
 30c:	00859693          	slli	a3,a1,0x8
 310:	00d5e5b3          	or	a1,a1,a3
 314:	01059693          	slli	a3,a1,0x10
 318:	00d5e5b3          	or	a1,a1,a3
 31c:	f6dff06f          	j	288 <memset+0x18>
 320:	00279693          	slli	a3,a5,0x2
 324:	00000297          	auipc	t0,0x0
 328:	005686b3          	add	a3,a3,t0
 32c:	00008293          	mv	t0,ra
 330:	fa0680e7          	jalr	-96(a3)
 334:	00028093          	mv	ra,t0
 338:	ff078793          	addi	a5,a5,-16
 33c:	40f70733          	sub	a4,a4,a5
 340:	00f60633          	add	a2,a2,a5
 344:	f6c378e3          	bgeu	t1,a2,2b4 <memset+0x44>
 348:	f3dff06f          	j	284 <memset+0x14>

0000034c <main>:


int __attribute__ ((used))
main (int argc __attribute__ ((unused)),
      char *argv[] __attribute__ ((unused)))
{
 34c:	1101                	addi	sp,sp,-32
 34e:	ce06                	sw	ra,28(sp)
  volatile int result;
  volatile int correct;

  initialise_board ();
 350:	355d                	jal	1f6 <initialise_board>
  initialise_benchmark ();
 352:	3345                	jal	f2 <initialise_benchmark>
  warm_caches (WARMUP_HEAT);
 354:	4501                	li	a0,0
 356:	3b79                	jal	f4 <warm_caches>

  start_trigger ();
 358:	354d                	jal	1fa <start_trigger>
  result = benchmark ();
 35a:	3b71                	jal	f6 <benchmark>
 35c:	c42a                	sw	a0,8(sp)
  stop_trigger ();
 35e:	3545                	jal	1fe <stop_trigger>

  /* bmarks that use arrays will check a global array rather than int result */

  correct = verify_benchmark (result);
 360:	4522                	lw	a0,8(sp)
 362:	3b61                	jal	fa <verify_benchmark>
 364:	c62a                	sw	a0,12(sp)

  //return (!correct);
  for (;;) {
    asm("wfi");
 366:	10500073          	wfi
 36a:	bff5                	j	366 <main+0x1a>

0000036c <__CTOR_LIST__>:
	...

00000374 <__CTOR_END__>:
	...
