
crc_32.elf:     file format elf32-littleriscv


Disassembly of section .vectors:

00000000 <_stack_start-0x10000>:
  // external interrupts are handled by the same callback
  // until compiler supports IRQ routines
  .org 0x00
  .rept 31
  nop
  .endr
   0:	00000013          	nop
   4:	00000013          	nop
   8:	00000013          	nop
   c:	00000013          	nop
  10:	00000013          	nop
  14:	00000013          	nop
  18:	00000013          	nop
  1c:	00000013          	nop
  20:	00000013          	nop
  24:	00000013          	nop
  28:	00000013          	nop
  2c:	00000013          	nop
  30:	00000013          	nop
  34:	00000013          	nop
  38:	00000013          	nop
  3c:	00000013          	nop
  40:	00000013          	nop
  44:	00000013          	nop
  48:	00000013          	nop
  4c:	00000013          	nop
  50:	00000013          	nop
  54:	00000013          	nop
  58:	00000013          	nop
  5c:	00000013          	nop
  60:	00000013          	nop
  64:	00000013          	nop
  68:	00000013          	nop
  6c:	00000013          	nop
  70:	00000013          	nop
  74:	00000013          	nop
  78:	00000013          	nop
  jal x0, default_exc_handler
  7c:	1860006f          	j	202 <default_exc_handler>

  // reset vector
  .org 0x80
  jal x0, reset_handler
  80:	1860006f          	j	206 <reset_handler>

  // illegal instruction exception
  .org 0x84
  jal x0, default_exc_handler
  84:	17e0006f          	j	202 <default_exc_handler>

  // ecall handler
  .org 0x88
  jal x0, default_exc_handler
  88:	17a0006f          	j	202 <default_exc_handler>

Disassembly of section .text:

0000008c <crc32pseudo>:
};


DWORD
crc32pseudo ()
{
  8c:	1141                	addi	sp,sp,-16
  8e:	c422                	sw	s0,8(sp)
  90:	c226                	sw	s1,4(sp)
  92:	c04a                	sw	s2,0(sp)
  94:	c606                	sw	ra,12(sp)
  96:	40000493          	li	s1,1024
  int i;
  register DWORD oldcrc32;

  oldcrc32 = 0xFFFFFFFF;
  9a:	547d                	li	s0,-1

  for (i = 0; i < 1024; ++i)
    {
      oldcrc32 = UPDC32 (rand_beebs (), oldcrc32);
  9c:	37c00913          	li	s2,892
  a0:	20a5                	jal	108 <rand_beebs>
  a2:	8d21                	xor	a0,a0,s0
  a4:	0ff57513          	andi	a0,a0,255
  a8:	050a                	slli	a0,a0,0x2
  aa:	954a                	add	a0,a0,s2
  ac:	411c                	lw	a5,0(a0)
  ae:	8021                	srli	s0,s0,0x8
  b0:	14fd                	addi	s1,s1,-1
  b2:	8c3d                	xor	s0,s0,a5
  for (i = 0; i < 1024; ++i)
  b4:	f4f5                	bnez	s1,a0 <crc32pseudo+0x14>
    }

  return ~oldcrc32;
}
  b6:	fff44513          	not	a0,s0
  ba:	40b2                	lw	ra,12(sp)
  bc:	4422                	lw	s0,8(sp)
  be:	4492                	lw	s1,4(sp)
  c0:	4902                	lw	s2,0(sp)
  c2:	0141                	addi	sp,sp,16
  c4:	8082                	ret

000000c6 <benchmark_body>:
}


static int __attribute__ ((noinline))
benchmark_body (int rpt)
{
  c6:	1141                	addi	sp,sp,-16
  c8:	c422                	sw	s0,8(sp)
  ca:	c226                	sw	s1,4(sp)
  cc:	c606                	sw	ra,12(sp)
  ce:	84aa                	mv	s1,a0
  int i;
  DWORD r;

  for (i = 0; i < rpt; i++)
  d0:	4401                	li	s0,0
  d2:	00944a63          	blt	s0,s1,e6 <benchmark_body+0x20>
      srand_beebs (0);
      r = crc32pseudo ();
    }

  return (int) (r % 32768);
}
  d6:	40b2                	lw	ra,12(sp)
  d8:	4422                	lw	s0,8(sp)
  return (int) (r % 32768);
  da:	01179513          	slli	a0,a5,0x11
}
  de:	4492                	lw	s1,4(sp)
  e0:	8145                	srli	a0,a0,0x11
  e2:	0141                	addi	sp,sp,16
  e4:	8082                	ret
      srand_beebs (0);
  e6:	4501                	li	a0,0
  e8:	2091                	jal	12c <srand_beebs>
      r = crc32pseudo ();
  ea:	374d                	jal	8c <crc32pseudo>
  ec:	87aa                	mv	a5,a0
  for (i = 0; i < rpt; i++)
  ee:	0405                	addi	s0,s0,1
  f0:	b7cd                	j	d2 <benchmark_body+0xc>

000000f2 <initialise_benchmark>:
}
  f2:	8082                	ret

000000f4 <warm_caches>:
  int  res = benchmark_body (heat);
  f4:	bfc9                	j	c6 <benchmark_body>

000000f6 <benchmark>:
  return benchmark_body (LOCAL_SCALE_FACTOR * CPU_MHZ);
  f6:	4505                	li	a0,1
  f8:	b7f9                	j	c6 <benchmark_body>

000000fa <verify_benchmark>:


int
verify_benchmark (int r)
{
  return 11433 == r;
  fa:	77f5                	lui	a5,0xffffd
  fc:	35778793          	addi	a5,a5,855 # ffffd357 <_stack_start+0xfffed357>
 100:	953e                	add	a0,a0,a5
}
 102:	00153513          	seqz	a0,a0
 106:	8082                	ret

00000108 <rand_beebs>:
   multipliers and offsets and RAND_MAX variations. */

int
rand_beebs (void)
{
  seed = (seed * 1103515245L + 12345) & ((1UL << 31) - 1);
 108:	78800713          	li	a4,1928
 10c:	4308                	lw	a0,0(a4)
 10e:	41c657b7          	lui	a5,0x41c65
 112:	e6d78793          	addi	a5,a5,-403 # 41c64e6d <_stack_start+0x41c54e6d>
 116:	02f50533          	mul	a0,a0,a5
 11a:	678d                	lui	a5,0x3
 11c:	03978793          	addi	a5,a5,57 # 3039 <_min_stack+0x1039>
 120:	953e                	add	a0,a0,a5
 122:	0506                	slli	a0,a0,0x1
 124:	8105                	srli	a0,a0,0x1
 126:	c308                	sw	a0,0(a4)
  return (int) (seed >> 16);
}
 128:	8141                	srli	a0,a0,0x10
 12a:	8082                	ret

0000012c <srand_beebs>:
/* Initialize the random number generator */

void
srand_beebs (unsigned int new_seed)
{
  seed = (long int) new_seed;
 12c:	78a02423          	sw	a0,1928(zero) # 788 <seed>
}
 130:	8082                	ret

00000132 <init_heap_beebs>:

void
init_heap_beebs (void *heap, size_t heap_size)
{
  heap_ptr = (void *) heap;
  heap_end = (void *) ((char *) heap_ptr + heap_size);
 132:	95aa                	add	a1,a1,a0
  heap_ptr = (void *) heap;
 134:	78a02223          	sw	a0,1924(zero) # 784 <heap_ptr>
  heap_end = (void *) ((char *) heap_ptr + heap_size);
 138:	78b02023          	sw	a1,1920(zero) # 780 <heap_end>
  heap_requested = 0;
 13c:	76002e23          	sw	zero,1916(zero) # 77c <_edata>
}
 140:	8082                	ret

00000142 <check_heap_beebs>:
   since the last call to init_heap_beebs, zero (FALSE) otherwise. */

int
check_heap_beebs (void *heap)
{
  return ((void *) ((char *) heap + heap_requested) <= heap_end);
 142:	77c00793          	li	a5,1916
 146:	439c                	lw	a5,0(a5)
 148:	953e                	add	a0,a0,a5
 14a:	78000793          	li	a5,1920
 14e:	439c                	lw	a5,0(a5)
 150:	00a7b533          	sltu	a0,a5,a0
}
 154:	00154513          	xori	a0,a0,1
 158:	8082                	ret

0000015a <malloc_beebs>:
void *
malloc_beebs (size_t size)
{
  void *new_ptr = heap_ptr;

  heap_requested += size;
 15a:	77c00713          	li	a4,1916
 15e:	4318                	lw	a4,0(a4)
  void *new_ptr = heap_ptr;
 160:	78400793          	li	a5,1924
 164:	439c                	lw	a5,0(a5)
  heap_requested += size;
 166:	972a                	add	a4,a4,a0
 168:	76e02e23          	sw	a4,1916(zero) # 77c <_edata>

  if (((void *) ((char *) heap_ptr + size) > heap_end) || (0 == size))
 16c:	78000693          	li	a3,1920
 170:	4294                	lw	a3,0(a3)
 172:	00a78733          	add	a4,a5,a0
 176:	00e6e763          	bltu	a3,a4,184 <malloc_beebs+0x2a>
 17a:	c509                	beqz	a0,184 <malloc_beebs+0x2a>
    return NULL;
  else
    {
      heap_ptr = (void *) ((char *) heap_ptr + size);
 17c:	78e02223          	sw	a4,1924(zero) # 784 <heap_ptr>
      return new_ptr;
    }
}
 180:	853e                	mv	a0,a5
 182:	8082                	ret
    return NULL;
 184:	4781                	li	a5,0
 186:	bfed                	j	180 <malloc_beebs+0x26>

00000188 <calloc_beebs>:
   Implement as wrapper for malloc */

void *
calloc_beebs (size_t nmemb, size_t size)
{
  void *new_ptr = malloc_beebs (nmemb * size);
 188:	02b50633          	mul	a2,a0,a1
{
 18c:	1101                	addi	sp,sp,-32
 18e:	cc22                	sw	s0,24(sp)
 190:	ce06                	sw	ra,28(sp)
  void *new_ptr = malloc_beebs (nmemb * size);
 192:	8532                	mv	a0,a2
 194:	c632                	sw	a2,12(sp)
 196:	37d1                	jal	15a <malloc_beebs>
 198:	842a                	mv	s0,a0

  /* Calloc is defined to zero the memory. OK to use a function here, because
     it will be handled specially by the compiler anyway. */

  if (NULL != new_ptr)
 19a:	c501                	beqz	a0,1a2 <calloc_beebs+0x1a>
    memset (new_ptr, 0, nmemb * size);
 19c:	4632                	lw	a2,12(sp)
 19e:	4581                	li	a1,0
 1a0:	28c1                	jal	270 <memset>

  return new_ptr;
}
 1a2:	8522                	mv	a0,s0
 1a4:	40f2                	lw	ra,28(sp)
 1a6:	4462                	lw	s0,24(sp)
 1a8:	6105                	addi	sp,sp,32
 1aa:	8082                	ret

000001ac <realloc_beebs>:
void *
realloc_beebs (void *ptr, size_t size)
{
  void *new_ptr = heap_ptr;

  heap_requested += size;
 1ac:	77c00713          	li	a4,1916
 1b0:	4318                	lw	a4,0(a4)
  void *new_ptr = heap_ptr;
 1b2:	78400793          	li	a5,1924
 1b6:	439c                	lw	a5,0(a5)
  heap_requested += size;
 1b8:	972e                	add	a4,a4,a1
 1ba:	76e02e23          	sw	a4,1916(zero) # 77c <_edata>

  if (((void *) ((char *) heap_ptr + size) > heap_end) || (0 == size))
 1be:	78000693          	li	a3,1920
 1c2:	4294                	lw	a3,0(a3)
 1c4:	00b78733          	add	a4,a5,a1
 1c8:	02e6e463          	bltu	a3,a4,1f0 <realloc_beebs+0x44>
 1cc:	c195                	beqz	a1,1f0 <realloc_beebs+0x44>
    return NULL;
  else
    {
      heap_ptr = (void *) ((char *) heap_ptr + size);
 1ce:	78e02223          	sw	a4,1924(zero) # 784 <heap_ptr>
      /* This is clunky, since we don't know the size of the original
         pointer. However it is a read only action and we know it must
         be big enough if we right off the end, or we couldn't have
         allocated here. If the size is smaller, it doesn't matter. */

      if (NULL != ptr)
 1d2:	cd09                	beqz	a0,1ec <realloc_beebs+0x40>
	{
	  size_t i;

	  for (i = 0; i < size; i++)
 1d4:	4701                	li	a4,0
	    ((char *) new_ptr)[i] = ((char *) ptr)[i];
 1d6:	00e506b3          	add	a3,a0,a4
 1da:	0006c603          	lbu	a2,0(a3)
 1de:	00e786b3          	add	a3,a5,a4
	  for (i = 0; i < size; i++)
 1e2:	0705                	addi	a4,a4,1
	    ((char *) new_ptr)[i] = ((char *) ptr)[i];
 1e4:	00c68023          	sb	a2,0(a3)
	  for (i = 0; i < size; i++)
 1e8:	fee597e3          	bne	a1,a4,1d6 <realloc_beebs+0x2a>
	}

      return new_ptr;
    }
}
 1ec:	853e                	mv	a0,a5
 1ee:	8082                	ret
    return NULL;
 1f0:	4781                	li	a5,0
 1f2:	bfed                	j	1ec <realloc_beebs+0x40>

000001f4 <free_beebs>:
   For our simplified version of memory handling, free can just do nothing. */

void
free_beebs (void *ptr __attribute__ ((unused)))
{
}
 1f4:	8082                	ret

000001f6 <initialise_board>:
//#include <support.h>

void
initialise_board ()
{
  __asm__ volatile ("li a0, 0" : : : "memory");
 1f6:	4501                	li	a0,0
}
 1f8:	8082                	ret

000001fa <start_trigger>:

void __attribute__ ((noinline)) __attribute__ ((externally_visible))
start_trigger ()
{
  __asm__ volatile ("li a0, 0" : : : "memory");
 1fa:	4501                	li	a0,0
}
 1fc:	8082                	ret

000001fe <stop_trigger>:

void __attribute__ ((noinline)) __attribute__ ((externally_visible))
stop_trigger ()
{
  __asm__ volatile ("li a0, 0" : : : "memory");
 1fe:	4501                	li	a0,0
}
 200:	8082                	ret

00000202 <default_exc_handler>:
  jal x0, default_exc_handler
 202:	0000006f          	j	202 <default_exc_handler>

00000206 <reset_handler>:
  mv  x1, x0
 206:	00000093          	li	ra,0
  mv  x2, x1
 20a:	8106                	mv	sp,ra
  mv  x3, x1
 20c:	8186                	mv	gp,ra
  mv  x4, x1
 20e:	8206                	mv	tp,ra
  mv  x5, x1
 210:	8286                	mv	t0,ra
  mv  x6, x1
 212:	8306                	mv	t1,ra
  mv  x7, x1
 214:	8386                	mv	t2,ra
  mv  x8, x1
 216:	8406                	mv	s0,ra
  mv  x9, x1
 218:	8486                	mv	s1,ra
  mv x10, x1
 21a:	8506                	mv	a0,ra
  mv x11, x1
 21c:	8586                	mv	a1,ra
  mv x12, x1
 21e:	8606                	mv	a2,ra
  mv x13, x1
 220:	8686                	mv	a3,ra
  mv x14, x1
 222:	8706                	mv	a4,ra
  mv x15, x1
 224:	8786                	mv	a5,ra
  mv x16, x1
 226:	8806                	mv	a6,ra
  mv x17, x1
 228:	8886                	mv	a7,ra
  mv x18, x1
 22a:	8906                	mv	s2,ra
  mv x19, x1
 22c:	8986                	mv	s3,ra
  mv x20, x1
 22e:	8a06                	mv	s4,ra
  mv x21, x1
 230:	8a86                	mv	s5,ra
  mv x22, x1
 232:	8b06                	mv	s6,ra
  mv x23, x1
 234:	8b86                	mv	s7,ra
  mv x24, x1
 236:	8c06                	mv	s8,ra
  mv x25, x1
 238:	8c86                	mv	s9,ra
  mv x26, x1
 23a:	8d06                	mv	s10,ra
  mv x27, x1
 23c:	8d86                	mv	s11,ra
  mv x28, x1
 23e:	8e06                	mv	t3,ra
  mv x29, x1
 240:	8e86                	mv	t4,ra
  mv x30, x1
 242:	8f06                	mv	t5,ra
  mv x31, x1
 244:	8f86                	mv	t6,ra
  la   x2, _stack_start
 246:	00010117          	auipc	sp,0x10
 24a:	dba10113          	addi	sp,sp,-582 # 10000 <_stack_start>

0000024e <_start>:
  la x26, _bss_start
 24e:	77c00d13          	li	s10,1916
  la x27, _bss_end
 252:	78c00d93          	li	s11,1932
  bge x26, x27, zero_loop_end
 256:	01bd5763          	bge	s10,s11,264 <main_entry>

0000025a <zero_loop>:
  sw x0, 0(x26)
 25a:	000d2023          	sw	zero,0(s10)
  addi x26, x26, 4
 25e:	0d11                	addi	s10,s10,4
  ble x26, x27, zero_loop
 260:	ffaddde3          	bge	s11,s10,25a <zero_loop>

00000264 <main_entry>:
  addi x10, x0, 0
 264:	00000513          	li	a0,0
  addi x11, x0, 0
 268:	00000593          	li	a1,0
  jal x1, main
 26c:	0e0000ef          	jal	ra,34c <main>

00000270 <memset>:
 270:	00f00313          	li	t1,15
 274:	00050713          	mv	a4,a0
 278:	02c37e63          	bgeu	t1,a2,2b4 <memset+0x44>
 27c:	00f77793          	andi	a5,a4,15
 280:	0a079063          	bnez	a5,320 <memset+0xb0>
 284:	08059263          	bnez	a1,308 <memset+0x98>
 288:	ff067693          	andi	a3,a2,-16
 28c:	00f67613          	andi	a2,a2,15
 290:	00e686b3          	add	a3,a3,a4
 294:	00b72023          	sw	a1,0(a4)
 298:	00b72223          	sw	a1,4(a4)
 29c:	00b72423          	sw	a1,8(a4)
 2a0:	00b72623          	sw	a1,12(a4)
 2a4:	01070713          	addi	a4,a4,16
 2a8:	fed766e3          	bltu	a4,a3,294 <memset+0x24>
 2ac:	00061463          	bnez	a2,2b4 <memset+0x44>
 2b0:	00008067          	ret
 2b4:	40c306b3          	sub	a3,t1,a2
 2b8:	00269693          	slli	a3,a3,0x2
 2bc:	00000297          	auipc	t0,0x0
 2c0:	005686b3          	add	a3,a3,t0
 2c4:	00c68067          	jr	12(a3)
 2c8:	00b70723          	sb	a1,14(a4)
 2cc:	00b706a3          	sb	a1,13(a4)
 2d0:	00b70623          	sb	a1,12(a4)
 2d4:	00b705a3          	sb	a1,11(a4)
 2d8:	00b70523          	sb	a1,10(a4)
 2dc:	00b704a3          	sb	a1,9(a4)
 2e0:	00b70423          	sb	a1,8(a4)
 2e4:	00b703a3          	sb	a1,7(a4)
 2e8:	00b70323          	sb	a1,6(a4)
 2ec:	00b702a3          	sb	a1,5(a4)
 2f0:	00b70223          	sb	a1,4(a4)
 2f4:	00b701a3          	sb	a1,3(a4)
 2f8:	00b70123          	sb	a1,2(a4)
 2fc:	00b700a3          	sb	a1,1(a4)
 300:	00b70023          	sb	a1,0(a4)
 304:	00008067          	ret
 308:	0ff5f593          	andi	a1,a1,255
 30c:	00859693          	slli	a3,a1,0x8
 310:	00d5e5b3          	or	a1,a1,a3
 314:	01059693          	slli	a3,a1,0x10
 318:	00d5e5b3          	or	a1,a1,a3
 31c:	f6dff06f          	j	288 <memset+0x18>
 320:	00279693          	slli	a3,a5,0x2
 324:	00000297          	auipc	t0,0x0
 328:	005686b3          	add	a3,a3,t0
 32c:	00008293          	mv	t0,ra
 330:	fa0680e7          	jalr	-96(a3)
 334:	00028093          	mv	ra,t0
 338:	ff078793          	addi	a5,a5,-16
 33c:	40f70733          	sub	a4,a4,a5
 340:	00f60633          	add	a2,a2,a5
 344:	f6c378e3          	bgeu	t1,a2,2b4 <memset+0x44>
 348:	f3dff06f          	j	284 <memset+0x14>

0000034c <main>:


int __attribute__ ((used))
main (int argc __attribute__ ((unused)),
      char *argv[] __attribute__ ((unused)))
{
 34c:	1101                	addi	sp,sp,-32
 34e:	ce06                	sw	ra,28(sp)
  volatile int result;
  volatile int correct;

  initialise_board ();
 350:	355d                	jal	1f6 <initialise_board>
  initialise_benchmark ();
 352:	3345                	jal	f2 <initialise_benchmark>
  warm_caches (WARMUP_HEAT);
 354:	4501                	li	a0,0
 356:	3b79                	jal	f4 <warm_caches>

  start_trigger ();
 358:	354d                	jal	1fa <start_trigger>
  result = benchmark ();
 35a:	3b71                	jal	f6 <benchmark>
 35c:	c42a                	sw	a0,8(sp)
  stop_trigger ();
 35e:	3545                	jal	1fe <stop_trigger>

  /* bmarks that use arrays will check a global array rather than int result */

  correct = verify_benchmark (result);
 360:	4522                	lw	a0,8(sp)
 362:	3b61                	jal	fa <verify_benchmark>
 364:	c62a                	sw	a0,12(sp)

  //return (!correct);
  for (;;) {
    asm("wfi");
 366:	10500073          	wfi
 36a:	bff5                	j	366 <main+0x1a>

0000036c <__CTOR_LIST__>:
	...

00000374 <__CTOR_END__>:
	...

Disassembly of section .rodata:

0000037c <crc_32_tab>:
static const UNS_32_BITS crc_32_tab[] = {	/* CRC polynomial 0xedb88320 */
 37c:	0000                	unimp
 37e:	0000                	unimp
 380:	3096                	fld	ft1,352(sp)
 382:	612c7707          	0x612c7707
 386:	ee0e                	fsw	ft3,28(sp)
 388:	51ba                	lw	gp,172(sp)
 38a:	9909                	andi	a0,a0,-30
 38c:	c419                	beqz	s0,39a <crc_32_tab+0x1e>
 38e:	076d                	addi	a4,a4,27
 390:	706af48f          	0x706af48f
 394:	a535                	j	9c0 <_bss_end+0x234>
 396:	95a3e963          	bltu	t2,s10,fffff4e8 <_stack_start+0xfffef4e8>
 39a:	9e64                	0x9e64
 39c:	8832                	mv	a6,a2
 39e:	b8a40edb          	0xb8a40edb
 3a2:	79dc                	flw	fa5,52(a1)
 3a4:	e91e                	fsw	ft7,144(sp)
 3a6:	e0d5                	bnez	s1,44a <crc_32_tab+0xce>
 3a8:	d988                	sw	a0,48(a1)
 3aa:	97d2                	add	a5,a5,s4
 3ac:	09b64c2b          	0x9b64c2b
 3b0:	7cbd                	lui	s9,0xfffef
 3b2:	7eb1                	lui	t4,0xfffec
 3b4:	e7b82d07          	flw	fs10,-389(a6)
 3b8:	1d91                	addi	s11,s11,-28
 3ba:	106490bf 20f21db7 	0x20f21db7106490bf
 3c2:	6ab0                	flw	fa2,80(a3)
 3c4:	7148                	flw	fa0,36(a0)
 3c6:	f3b9                	bnez	a5,30c <memset+0x9c>
 3c8:	41de                	lw	gp,212(sp)
 3ca:	84be                	mv	s1,a5
 3cc:	d47d                	beqz	s0,3ba <crc_32_tab+0x3e>
 3ce:	1ada                	slli	s5,s5,0x36
 3d0:	6ddde4eb          	0x6ddde4eb
 3d4:	b551                	j	258 <_start+0xa>
 3d6:	f4d4                	fsw	fa3,44(s1)
 3d8:	83d385c7          	fmsub.d	fa1,ft7,ft9,fa6,rne
 3dc:	9856                	add	a6,a6,s5
 3de:	136c                	addi	a1,sp,428
 3e0:	a8c0                	fsd	fs0,144(s1)
 3e2:	f97a646b          	0xf97a646b
 3e6:	fd62                	fsw	fs8,184(sp)
 3e8:	c9ec                	sw	a1,84(a1)
 3ea:	8a65                	andi	a2,a2,25
 3ec:	14015c4f          	0x14015c4f
 3f0:	6cd9                	lui	s9,0x16
 3f2:	6306                	flw	ft6,64(sp)
 3f4:	fa0f3d63          	0xfa0f3d63
 3f8:	0df5                	addi	s11,s11,29
 3fa:	8d08                	0x8d08
 3fc:	20c8                	fld	fa0,128(s1)
 3fe:	3b6e                	fld	fs6,248(sp)
 400:	105e                	c.slli	zero,0x37
 402:	4c69                	li	s8,26
 404:	41e4                	lw	s1,68(a1)
 406:	d560                	sw	s0,108(a0)
 408:	7172                	flw	ft2,60(sp)
 40a:	e4d1a267          	0xe4d1a267
 40e:	d4473c03          	0xd4473c03
 412:	4b04                	lw	s1,16(a4)
 414:	85fd                	srai	a1,a1,0x1f
 416:	d20d                	beqz	a2,338 <memset+0xc8>
 418:	a50ab56b          	0xa50ab56b
 41c:	a8fa                	fsd	ft10,80(sp)
 41e:	35b5                	jal	28a <memset+0x1a>
 420:	986c                	0x986c
 422:	42b2                	lw	t0,12(sp)
 424:	c9d6                	sw	s5,208(sp)
 426:	f940dbbb          	0xf940dbbb
 42a:	acbc                	fsd	fa5,88(s1)
 42c:	32d86ce3          	bltu	a6,a3,f64 <_bss_end+0x7d8>
 430:	5c75                	li	s8,-3
 432:	45df 0dcf dcd6      	0xdcd60dcf45df
 438:	3d59                	jal	2ce <memset+0x5e>
 43a:	abd1                	j	a0e <_bss_end+0x282>
 43c:	30ac                	fld	fa1,96(s1)
 43e:	26d9                	jal	804 <_bss_end+0x78>
 440:	003a                	c.slli	zero,0xe
 442:	51de                	lw	gp,244(sp)
 444:	5180                	lw	s0,32(a1)
 446:	6116c8d7          	0x6116c8d7
 44a:	bfd0                	fsd	fa2,184(a5)
 44c:	f4b5                	bnez	s1,3b8 <crc_32_tab+0x3c>
 44e:	21b4                	fld	fa3,64(a1)
 450:	56b3c423          	0x56b3c423
 454:	9599                	srai	a1,a1,0x26
 456:	cfba                	sw	a4,220(sp)
 458:	b8bda50f          	0xb8bda50f
 45c:	b89e                	fsd	ft7,112(sp)
 45e:	2802                	fld	fa6,0(sp)
 460:	8808                	0x8808
 462:	5f05                	li	t5,-31
 464:	d9b2                	sw	a2,240(sp)
 466:	c60c                	sw	a1,8(a2)
 468:	e924                	fsw	fs1,80(a0)
 46a:	7c87b10b          	0x7c87b10b
 46e:	4c112f6f          	jal	t5,1312e <_stack_start+0x312e>
 472:	5868                	lw	a0,116(s0)
 474:	c1611dab          	0xc1611dab
 478:	2d3d                	jal	ab6 <_bss_end+0x32a>
 47a:	b666                	fsd	fs9,296(sp)
 47c:	4190                	lw	a2,0(a1)
 47e:	76dc                	flw	fa5,44(a3)
 480:	7106                	flw	ft2,96(sp)
 482:	20bc01db          	0x20bc01db
 486:	98d2                	add	a7,a7,s4
 488:	102a                	c.slli	zero,0x2a
 48a:	efd5                	bnez	a5,546 <crc_32_tab+0x1ca>
 48c:	8589                	srai	a1,a1,0x2
 48e:	71b1                	lui	gp,0xfffec
 490:	b51f 06b6 e4a5      	0xe4a506b6b51f
 496:	d4339fbf c9a2e8b8 	0xc9a2e8b8d4339fbf
 49e:	f9347807          	0xf9347807
 4a2:	0f00                	addi	s0,sp,912
 4a4:	a88e                	fsd	ft3,80(sp)
 4a6:	9609                	srai	a2,a2,0x22
 4a8:	9818                	0x9818
 4aa:	e10e                	fsw	ft3,128(sp)
 4ac:	7f6a0dbb          	0x7f6a0dbb
 4b0:	3d2d                	jal	2ea <memset+0x7a>
 4b2:	086d                	addi	a6,a6,27
 4b4:	91646c97          	auipc	s9,0x91646
 4b8:	5c01                	li	s8,-32
 4ba:	51f4e663          	bltu	s1,t6,9c6 <_bss_end+0x23a>
 4be:	61626b6b          	0x61626b6b
 4c2:	1c6c                	addi	a1,sp,572
 4c4:	30d8                	fld	fa4,160(s1)
 4c6:	8565                	srai	a0,a0,0x19
 4c8:	004e                	c.slli	zero,0x13
 4ca:	f262                	fsw	fs8,36(sp)
 4cc:	95ed                	srai	a1,a1,0x3b
 4ce:	6c06                	flw	fs8,64(sp)
 4d0:	1b01a57b          	0x1b01a57b
 4d4:	f4c1                	bnez	s1,45c <crc_32_tab+0xe0>
 4d6:	8208                	0x8208
 4d8:	f50fc457          	0xf50fc457
 4dc:	d9c6                	sw	a7,240(sp)
 4de:	65b0                	flw	fa2,72(a1)
 4e0:	e950                	fsw	fa2,20(a0)
 4e2:	b8ea12b7          	lui	t0,0xb8ea1
 4e6:	8bbe                	mv	s7,a5
 4e8:	887c                	0x887c
 4ea:	fcb9                	bnez	s1,448 <crc_32_tab+0xcc>
 4ec:	1ddf 62dd 2d49      	0x2d4962dd1ddf
 4f2:	15da                	slli	a1,a1,0x36
 4f4:	8cd37cf3          	csrrci	s9,0x8cd,6
 4f8:	4c65                	li	s8,25
 4fa:	fbd4                	fsw	fa3,52(a5)
 4fc:	6158                	flw	fa4,4(a0)
 4fe:	4db2                	lw	s11,12(sp)
 500:	51ce                	lw	gp,240(sp)
 502:	3ab5                	jal	fffffe7e <_stack_start+0xfffefe7e>
 504:	0074                	addi	a3,sp,12
 506:	a3bc                	fsd	fa5,64(a5)
 508:	30e2                	fld	ft1,56(sp)
 50a:	a541d4bb          	0xa541d4bb
 50e:	4adf 95d7 3dd8      	0x3dd895d74adf
 514:	c46d                	beqz	s0,5fe <crc_32_tab+0x282>
 516:	a4d1                	j	7da <_bss_end+0x4e>
 518:	d3d6f4fb          	0xd3d6f4fb
 51c:	e96a                	fsw	fs10,144(sp)
 51e:	4369                	li	t1,26
 520:	d9fc                	sw	a5,116(a1)
 522:	346e                	fld	fs0,248(sp)
 524:	8846                	mv	a6,a7
 526:	b8d0ad67          	0xb8d0ad67
 52a:	da60                	sw	s0,116(a2)
 52c:	44042d73          	csrrs	s10,0x440,s0
 530:	1de5                	addi	s11,s11,-7
 532:	4c5f3303          	0x4c5f3303
 536:	aa0a                	fsd	ft2,272(sp)
 538:	7cc9                	lui	s9,0xffff2
 53a:	dd0d                	beqz	a0,474 <crc_32_tab+0xf8>
 53c:	713c                	flw	fa5,96(a0)
 53e:	5005                	c.li	zero,-31
 540:	41aa                	lw	gp,136(sp)
 542:	2702                	fld	fa4,0(sp)
 544:	1010                	addi	a2,sp,32
 546:	2086be0b          	0x2086be0b
 54a:	c90c                	sw	a1,16(a0)
 54c:	b525                	j	374 <__CTOR_END__>
 54e:	5768                	lw	a0,108(a4)
 550:	206f85b3          	0x206f85b3
 554:	d409                	beqz	s0,45e <crc_32_tab+0xe2>
 556:	b966                	fsd	fs9,176(sp)
 558:	e49f ce61 f90e      	0xf90ece61e49f
 55e:	5ede                	lw	t4,244(sp)
 560:	c998                	sw	a4,16(a1)
 562:	29d9                	jal	a38 <_bss_end+0x2ac>
 564:	9822                	add	a6,a6,s0
 566:	b0d0                	fsd	fa2,160(s1)
 568:	a8b4                	fsd	fa3,80(s1)
 56a:	3d17c7d7          	0x3d17c7d7
 56e:	0d8159b3          	0xd8159b3
 572:	2eb4                	fld	fa3,88(a3)
 574:	b7bd5c3b          	0xb7bd5c3b
 578:	6cad                	lui	s9,0xb
 57a:	c0ba                	sw	a4,64(sp)
 57c:	8320                	0x8320
 57e:	edb8                	fsw	fa4,88(a1)
 580:	b3b6                	fsd	fa3,480(sp)
 582:	e20c9abf d29a03b6 	0xd29a03b6e20c9abf
 58a:	74b1                	lui	s1,0xfffec
 58c:	4739                	li	a4,14
 58e:	ead5                	bnez	a3,642 <crc_32_tab+0x2c6>
 590:	9dd277af          	0x9dd277af
 594:	2615                	jal	8b8 <_bss_end+0x12c>
 596:	168304db          	0x168304db
 59a:	73dc                	flw	fa5,36(a5)
 59c:	0b12                	slli	s6,s6,0x4
 59e:	3b84e363          	bltu	s1,s8,944 <_bss_end+0x1b8>
 5a2:	9464                	0x9464
 5a4:	6a3e                	flw	fs4,204(sp)
 5a6:	0d6d                	addi	s10,s10,27
 5a8:	5aa8                	lw	a0,112(a3)
 5aa:	7a6a                	flw	fs4,184(sp)
 5ac:	e40ecf0b          	0xe40ecf0b
 5b0:	ff9d                	bnez	a5,4ee <crc_32_tab+0x172>
 5b2:	9309                	srli	a4,a4,0x22
 5b4:	0a00ae27          	fsw	ft0,188(ra)
 5b8:	9eb1                	0x9eb1
 5ba:	93447d07          	0x93447d07
 5be:	a3d2f00f          	0xa3d2f00f
 5c2:	8708                	0x8708
 5c4:	f268                	fsw	fa0,100(a2)
 5c6:	1e01                	addi	t3,t3,-32
 5c8:	c2fe                	sw	t6,68(sp)
 5ca:	6906                	flw	fs2,64(sp)
 5cc:	575d                	li	a4,-9
 5ce:	f762                	fsw	fs8,172(sp)
 5d0:	806567cb          	fnmsub.s	fa5,fa0,ft6,fa6,unknown
 5d4:	3671                	jal	160 <malloc_beebs+0x6>
 5d6:	196c                	addi	a1,sp,188
 5d8:	6e6b06e7          	jalr	a3,1766(s6)
 5dc:	1b76                	slli	s6,s6,0x3d
 5de:	fed4                	fsw	fa3,60(a3)
 5e0:	2be0                	fld	fs0,208(a5)
 5e2:	7a5a89d3          	0x7a5a89d3
 5e6:	10da                	slli	ra,ra,0x36
 5e8:	4acc                	lw	a1,20(a3)
 5ea:	67dd                	lui	a5,0x17
 5ec:	f9b9df6f          	jal	t5,fff9e586 <_stack_start+0xfff8e586>
 5f0:	eff9                	bnez	a5,6ce <crc_32_tab+0x352>
 5f2:	8ebe                	mv	t4,a5
 5f4:	17b7be43          	fmadd.q	ft8,fa5,fs11,ft2,rup
 5f8:	8ed5                	or	a3,a3,a3
 5fa:	60b0                	flw	fa2,64(s1)
 5fc:	a3e8                	fsd	fa0,192(a5)
 5fe:	d6d6                	sw	s5,108(sp)
 600:	937e                	add	t1,t1,t6
 602:	a1d1                	j	ac6 <_bss_end+0x33a>
 604:	c2c4                	sw	s1,4(a3)
 606:	38d8                	fld	fa4,176(s1)
 608:	f252                	fsw	fs4,36(sp)
 60a:	4fdf 67f1 d1bb      	0xd1bb67f14fdf
 610:	a6bc5767          	0xa6bc5767
 614:	06dd                	addi	a3,a3,23
 616:	3fb5                	jal	592 <crc_32_tab+0x216>
 618:	48b2364b          	fnmsub.s	fa2,ft4,fa1,fs1,rup
 61c:	2bda                	fld	fs7,400(sp)
 61e:	d80d                	beqz	s0,550 <crc_32_tab+0x1d4>
 620:	1b4c                	addi	a1,sp,436
 622:	af0a                	fsd	ft2,408(sp)
 624:	4af6                	lw	s5,92(sp)
 626:	7a603603          	0x7a603603
 62a:	4104                	lw	s1,0(a0)
 62c:	df60efc3          	fmadd.q	ft11,ft1,fs6,fs11,unknown
 630:	df55                	beqz	a4,5ec <crc_32_tab+0x270>
 632:	8eefa867          	0x8eefa867
 636:	316e                	fld	ft2,248(sp)
 638:	be79                	j	1d6 <realloc_beebs+0x2a>
 63a:	4669                	li	a2,26
 63c:	b38c                	fsd	fa1,32(a5)
 63e:	cb61                	beqz	a4,70e <crc_32_tab+0x392>
 640:	831a                	mv	t1,t1
 642:	bc66                	fsd	fs9,56(sp)
 644:	d2a0                	sw	s0,96(a3)
 646:	e236256f          	jal	a0,fff63468 <_stack_start+0xfff53468>
 64a:	5268                	lw	a0,100(a2)
 64c:	7795                	lui	a5,0xfffe5
 64e:	cc0c                	sw	a1,24(s0)
 650:	bb0b4703          	lbu	a4,-1104(s6)
 654:	16b9                	addi	a3,a3,-18
 656:	2202                	fld	ft4,0(sp)
 658:	5505262f          	0x5505262f
 65c:	3bbe                	fld	fs7,488(sp)
 65e:	c5ba                	sw	a4,200(sp)
 660:	0b28                	addi	a0,sp,408
 662:	b2bd                	j	ffffffd0 <_stack_start+0xfffeffd0>
 664:	5a92                	lw	s5,36(sp)
 666:	2bb4                	fld	fa3,80(a5)
 668:	6a04                	flw	fs1,16(a2)
 66a:	ffa75cb3          	0xffa75cb3
 66e:	cf31c2d7          	0xcf31c2d7
 672:	b5d0                	fsd	fa2,168(a1)
 674:	2cd99e8b          	0x2cd99e8b
 678:	ae1d                	j	9ae <_bss_end+0x222>
 67a:	5bde                	lw	s7,244(sp)
 67c:	c2b0                	sw	a2,64(a3)
 67e:	9b64                	0x9b64
 680:	f226                	fsw	fs1,36(sp)
 682:	a39cec63          	bltu	s9,s9,fffff8ba <_stack_start+0xfffef8ba>
 686:	756a                	flw	fa0,184(sp)
 688:	930a                	add	t1,t1,sp
 68a:	026d                	addi	tp,tp,27
 68c:	06a9                	addi	a3,a3,10
 68e:	9c09                	0x9c09
 690:	eb0e363f 72076785 	0x72076785eb0e363f
 698:	05005713          	0x5005713
 69c:	4a82                	lw	s5,0(sp)
 69e:	7a1495bf 2baee2b8 	0x2baee2b87a1495bf
 6a6:	7bb1                	lui	s7,0xfffec
 6a8:	1b38                	addi	a4,sp,440
 6aa:	0cb6                	slli	s9,s9,0xd
 6ac:	92d28e9b          	0x92d28e9b
 6b0:	be0d                	j	1e2 <realloc_beebs+0x36>
 6b2:	e5d5                	bnez	a1,75e <crc_32_tab+0x3e2>
 6b4:	7cdcefb7          	lui	t6,0x7cdce
 6b8:	df21                	beqz	a4,610 <crc_32_tab+0x294>
 6ba:	d2d40bdb          	0xd2d40bdb
 6be:	e24286d3          	0xe24286d3
 6c2:	f1d4                	fsw	fa3,36(a1)
 6c4:	b3f8                	fsd	fa4,224(a5)
 6c6:	68dd                	lui	a7,0x17
 6c8:	836e                	mv	t1,s11
 6ca:	1fda                	slli	t6,t6,0x36
 6cc:	16cd                	addi	a3,a3,-13
 6ce:	81be                	mv	gp,a5
 6d0:	f6b9265b          	0xf6b9265b
 6d4:	77e1                	lui	a5,0xffff8
 6d6:	6fb0                	flw	fa2,88(a5)
 6d8:	18b74777          	0x18b74777
 6dc:	5ae6                	lw	s5,120(sp)
 6de:	8808                	0x8808
 6e0:	6a70                	flw	fa2,84(a2)
 6e2:	3bcaff0f          	0x3bcaff0f
 6e6:	6606                	flw	fa2,64(sp)
 6e8:	0b5c                	addi	a5,sp,404
 6ea:	1101                	addi	sp,sp,-32
 6ec:	9eff                	0x9eff
 6ee:	8f65                	and	a4,a4,s1
 6f0:	ae69                	j	a8a <_bss_end+0x2fe>
 6f2:	f862                	fsw	fs8,48(sp)
 6f4:	616bffd3          	0x616bffd3
 6f8:	cf45                	beqz	a4,7b0 <_bss_end+0x24>
 6fa:	166c                	addi	a1,sp,812
 6fc:	e278                	fsw	fa4,68(a2)
 6fe:	a00a                	fsd	ft2,0(sp)
 700:	d2ee                	sw	s11,100(sp)
 702:	d70d                	beqz	a4,62c <crc_32_tab+0x2b0>
 704:	8354                	0x8354
 706:	4e04                	lw	s1,24(a2)
 708:	b3c2                	fsd	fa6,480(sp)
 70a:	26613903          	0x26613903
 70e:	16f7a767          	0x16f7a767
 712:	d060                	sw	s0,100(s0)
 714:	474d                	li	a4,19
 716:	4969                	li	s2,26
 718:	3e6e77db          	0x3e6e77db
 71c:	6a4a                	flw	fs4,144(sp)
 71e:	aed1                	j	af2 <_bss_end+0x366>
 720:	5adc                	lw	a5,52(a3)
 722:	d9d6                	sw	s5,240(sp)
 724:	0b66                	slli	s6,s6,0x19
 726:	40df 3bf0 37d8      	0x37d83bf040df
 72c:	a9bcae53          	0xa9bcae53
 730:	9ec5                	0x9ec5
 732:	cf7fdebb          	0xcf7fdebb
 736:	47b2                	lw	a5,12(sp)
 738:	ffe9                	bnez	a5,712 <crc_32_tab+0x396>
 73a:	30b5                	jal	ffffffa6 <_stack_start+0xfffeffa6>
 73c:	f21c                	fsw	fa5,32(a2)
 73e:	bdbd                	j	5bc <crc_32_tab+0x240>
 740:	c28a                	sw	sp,68(sp)
 742:	caba                	sw	a4,84(sp)
 744:	9330                	0x9330
 746:	a3a653b3          	0xa3a653b3
 74a:	24b4                	fld	fa3,72(s1)
 74c:	3605                	jal	26c <main_entry+0x8>
 74e:	bad0                	fsd	fa2,176(a3)
 750:	cdd70693          	addi	a3,a4,-803
 754:	5729                	li	a4,-22
 756:	54de                	lw	s1,244(sp)
 758:	23d967bf b3667a2e 	0xb3667a2e23d967bf
 760:	4ab8                	lw	a4,80(a3)
 762:	c461                	beqz	s0,82a <_bss_end+0x9e>
 764:	1b02                	slli	s6,s6,0x20
 766:	5d68                	lw	a0,124(a0)
 768:	2b94                	fld	fa3,16(a5)
 76a:	be372a6f          	jal	s4,fff7334c <_stack_start+0xfff6334c>
 76e:	8ea1b40b          	0x8ea1b40b
 772:	c30c                	sw	a1,0(a4)
 774:	5a05df1b          	0x5a05df1b
 778:	ef8d                	bnez	a5,7b2 <_bss_end+0x26>
 77a:	2d02                	fld	fs10,0(sp)

Disassembly of section .bss:

0000077c <_bss_start>:
 77c:	0000                	unimp
	...

00000780 <heap_end>:
static void *heap_end = NULL;
 780:	0000                	unimp
	...

00000784 <heap_ptr>:
static void *heap_ptr = NULL;
 784:	0000                	unimp
	...

00000788 <seed>:
static long int seed = 0;
 788:	0000                	unimp
	...

Disassembly of section .stack:

0000c000 <_stack-0x2000>:
	...

Disassembly of section .debug_info:

00000000 <.debug_info>:
  .endr
       0:	0ad4                	addi	a3,sp,340
       2:	0000                	unimp
       4:	0004                	0x4
       6:	0000                	unimp
       8:	0000                	unimp
       a:	0104                	addi	s1,sp,128
       c:	02d0                	addi	a2,sp,324
       e:	0000                	unimp
      10:	250c                	fld	fa1,8(a0)
      12:	0005                	c.nop	1
      14:	6900                	flw	fs0,16(a0)
      16:	0001                	nop
      18:	8c00                	0x8c00
      1a:	0000                	unimp
      1c:	7c00                	flw	fs0,56(s0)
      1e:	0000                	unimp
      20:	0000                	unimp
      22:	0000                	unimp
      24:	0200                	addi	s0,sp,256
      26:	0504                	addi	s1,sp,640
      28:	6e69                	lui	t3,0x1a
      2a:	0074                	addi	a3,sp,12
      2c:	4a070403          	lb	s0,1184(a4)
      30:	0000                	unimp
      32:	0300                	addi	s0,sp,384
      34:	0508                	addi	a0,sp,640
      36:	00000097          	auipc	ra,0x0
      3a:	8c041003          	lh	zero,-1856(s0)
      3e:	0002                	c.slli64	zero
      40:	0400                	addi	s0,sp,512
      42:	0251                	addi	tp,tp,20
      44:	0000                	unimp
      46:	6502                	flw	fa0,0(sp)
      48:	1701                	addi	a4,a4,-32
      4a:	002c                	addi	a1,sp,8
      4c:	0000                	unimp
      4e:	4e060103          	lb	sp,1248(a2)
      52:	03000003          	lb	zero,48(zero) # 30 <__DYNAMIC+0x30>
      56:	0801                	addi	a6,a6,0
      58:	034c                	addi	a1,sp,388
      5a:	0000                	unimp
      5c:	68050203          	lb	tp,1664(a0)
      60:	03000003          	lb	zero,48(zero) # 30 <__DYNAMIC+0x30>
      64:	0702                	c.slli64	a4
      66:	020e                	slli	tp,tp,0x3
      68:	0000                	unimp
      6a:	9c050403          	lb	s0,-1600(a0)
      6e:	0000                	unimp
      70:	0300                	addi	s0,sp,384
      72:	0704                	addi	s1,sp,896
      74:	0045                	c.nop	17
      76:	0000                	unimp
      78:	40070803          	lb	a6,1024(a4)
  jal x0, default_exc_handler
      7c:	0000                	unimp
      7e:	0500                	addi	s0,sp,640
  jal x0, reset_handler
      80:	0200                	addi	s0,sp,256
      82:	0000                	unimp
  jal x0, default_exc_handler
      84:	6a0e2e03          	lw	t3,1696(t3) # 1a6a0 <_stack_start+0xa6a0>
  jal x0, default_exc_handler
      88:	0000                	unimp
      8a:	0500                	addi	s0,sp,640
{
      8c:	041e                	slli	s0,s0,0x7
      8e:	0000                	unimp
      90:	6a0e7403          	0x6a0e7403
      94:	0000                	unimp
      96:	0500                	addi	s0,sp,640
      98:	04c1                	addi	s1,s1,16
  oldcrc32 = 0xFFFFFFFF;
      9a:	0000                	unimp
      oldcrc32 = UPDC32 (rand_beebs (), oldcrc32);
      9c:	25179303          	lh	t1,593(a5) # ffff8251 <_stack_start+0xfffe8251>
      a0:	0000                	unimp
      a2:	0600                	addi	s0,sp,768
      a4:	0304                	addi	s1,sp,384
      a6:	03a5                	addi	t2,t2,9
      a8:	00c5                	addi	ra,ra,17
      aa:	0000                	unimp
      ac:	00024b07          	flq	fs6,0(tp) # 0 <__DYNAMIC>
      b0:	0300                	addi	s0,sp,384
      b2:	00410ca7          	0x410ca7
}
      b6:	0000                	unimp
      b8:	0001e907          	0x1e907
      bc:	0300                	addi	s0,sp,384
      be:	13a8                	addi	a0,sp,488
      c0:	00c5                	addi	ra,ra,17
      c2:	0000                	unimp
      c4:	0800                	addi	s0,sp,16
{
      c6:	0055                	c.nop	21
      c8:	0000                	unimp
      ca:	00d5                	addi	ra,ra,21
      cc:	0000                	unimp
      ce:	2c09                	jal	2e0 <memset+0x70>
  for (i = 0; i < rpt; i++)
      d0:	0000                	unimp
      d2:	0300                	addi	s0,sp,384
      d4:	0a00                	addi	s0,sp,272
}
      d6:	0308                	addi	a0,sp,384
      d8:	09a2                	slli	s3,s3,0x8
  return (int) (r % 32768);
      da:	00f9                	addi	ra,ra,30
      dc:	0000                	unimp
}
      de:	0004080b          	0x4080b
      e2:	0300                	addi	s0,sp,384
      e4:	07a4                	addi	s1,sp,968
      srand_beebs (0);
      e6:	0025                	c.nop	9
      e8:	0000                	unimp
      r = crc32pseudo ();
      ea:	0b00                	addi	s0,sp,400
      ec:	0410                	addi	a2,sp,512
  for (i = 0; i < rpt; i++)
      ee:	0000                	unimp
      f0:	a305a903          	lw	s2,-1488(a1)
  int  res = benchmark_body (heat);
      f4:	0000                	unimp
  return benchmark_body (LOCAL_SCALE_FACTOR * CPU_MHZ);
      f6:	0400                	addi	s0,sp,512
      f8:	0500                	addi	s0,sp,640
  return 11433 == r;
      fa:	0390                	addi	a2,sp,448
      fc:	0000                	unimp
      fe:	d503aa03          	lw	s4,-688(t2)
}
     102:	0000                	unimp
     104:	0c00                	addi	s0,sp,528
     106:	0504                	addi	s1,sp,640
  seed = (seed * 1103515245L + 12345) & ((1UL << 31) - 1);
     108:	0460                	addi	s0,sp,524
     10a:	0000                	unimp
     10c:	1604                	addi	s1,sp,800
     10e:	7119                	addi	sp,sp,-128
     110:	0000                	unimp
     112:	0500                	addi	s0,sp,640
     114:	032e                	slli	t1,t1,0xb
     116:	0000                	unimp
     118:	0c05                	addi	s8,s8,1
     11a:	250d                	jal	73c <__DTOR_END__+0x3c0>
     11c:	0000                	unimp
     11e:	0500                	addi	s0,sp,640
     120:	000001a7          	0x1a7
     124:	2304                	fld	fs1,0(a4)
     126:	0001131b          	0x1131b
}
     12a:	0d00                	addi	s0,sp,656
  seed = (long int) new_seed;
     12c:	01b8                	addi	a4,sp,200
     12e:	0000                	unimp
}
     130:	0418                	addi	a4,sp,512
  heap_end = (void *) ((char *) heap_ptr + heap_size);
     132:	0834                	addi	a3,sp,24
  heap_ptr = (void *) heap;
     134:	0185                	addi	gp,gp,1
     136:	0000                	unimp
  heap_end = (void *) ((char *) heap_ptr + heap_size);
     138:	0003b10b          	0x3b10b
  heap_requested = 0;
     13c:	0400                	addi	s0,sp,512
     13e:	1336                	slli	t1,t1,0x2d
}
     140:	0185                	addi	gp,gp,1
  return ((void *) ((char *) heap + heap_requested) <= heap_end);
     142:	0000                	unimp
     144:	0e00                	addi	s0,sp,784
     146:	6b5f 0400 0737      	0x73704006b5f
     14c:	0025                	c.nop	9
     14e:	0000                	unimp
     150:	0b04                	addi	s1,sp,400
     152:	03f9                	addi	t2,t2,30
}
     154:	0000                	unimp
     156:	3704                	fld	fs1,40(a4)
     158:	0000250b          	0x250b
  heap_requested += size;
     15c:	0800                	addi	s0,sp,16
     15e:	0000140b          	0x140b
  void *new_ptr = heap_ptr;
     162:	0400                	addi	s0,sp,512
     164:	00251437          	lui	s0,0x251
  heap_requested += size;
     168:	0000                	unimp
     16a:	0b0c                	addi	a1,sp,400
  if (((void *) ((char *) heap_ptr + size) > heap_end) || (0 == size))
     16c:	04ac                	addi	a1,sp,584
     16e:	0000                	unimp
     170:	3704                	fld	fs1,40(a4)
     172:	0000251b          	0x251b
     176:	1000                	addi	s0,sp,32
     178:	5f0e                	lw	t5,224(sp)
     17a:	0078                	addi	a4,sp,12
      heap_ptr = (void *) ((char *) heap_ptr + size);
     17c:	3804                	fld	fs1,48(s0)
     17e:	00018b0b          	0x18b0b
}
     182:	1400                	addi	s0,sp,544
    return NULL;
     184:	0f00                	addi	s0,sp,912
     186:	2b04                	fld	fs1,16(a4)
  void *new_ptr = malloc_beebs (nmemb * size);
     188:	0001                	nop
     18a:	0800                	addi	s0,sp,16
{
     18c:	00000107          	0x107
     190:	0000019b          	0x19b
  void *new_ptr = malloc_beebs (nmemb * size);
     194:	2c09                	jal	3a6 <__DTOR_END__+0x2a>
     196:	0000                	unimp
     198:	0000                	unimp
  if (NULL != new_ptr)
     19a:	0d00                	addi	s0,sp,656
    memset (new_ptr, 0, nmemb * size);
     19c:	01e4                	addi	s1,sp,204
     19e:	0000                	unimp
     1a0:	0424                	addi	s1,sp,520
}
     1a2:	083c                	addi	a5,sp,24
     1a4:	021e                	slli	tp,tp,0x7
     1a6:	0000                	unimp
     1a8:	00008e0b          	0x8e0b
  heap_requested += size;
     1ac:	0400                	addi	s0,sp,512
     1ae:	093e                	slli	s2,s2,0xf
     1b0:	0025                	c.nop	9
  void *new_ptr = heap_ptr;
     1b2:	0000                	unimp
     1b4:	0b00                	addi	s0,sp,400
     1b6:	0000042b          	0x42b
  heap_requested += size;
     1ba:	3f04                	fld	fs1,56(a4)
     1bc:	2509                	jal	7be <_bss_end+0x32>
  if (((void *) ((char *) heap_ptr + size) > heap_end) || (0 == size))
     1be:	0000                	unimp
     1c0:	0400                	addi	s0,sp,512
     1c2:	0000bd0b          	0xbd0b
     1c6:	0400                	addi	s0,sp,512
     1c8:	0940                	addi	s0,sp,148
     1ca:	0025                	c.nop	9
     1cc:	0000                	unimp
      heap_ptr = (void *) ((char *) heap_ptr + size);
     1ce:	0b08                	addi	a0,sp,400
     1d0:	00000543          	fmadd.s	fa0,ft0,ft0,ft0,rne
	  for (i = 0; i < size; i++)
     1d4:	4104                	lw	s1,0(a0)
	    ((char *) new_ptr)[i] = ((char *) ptr)[i];
     1d6:	2509                	jal	7d8 <_bss_end+0x4c>
     1d8:	0000                	unimp
     1da:	0c00                	addi	s0,sp,528
     1dc:	0002aa0b          	0x2aa0b
     1e0:	0400                	addi	s0,sp,512
	  for (i = 0; i < size; i++)
     1e2:	0942                	slli	s2,s2,0x10
	    ((char *) new_ptr)[i] = ((char *) ptr)[i];
     1e4:	0025                	c.nop	9
     1e6:	0000                	unimp
	  for (i = 0; i < size; i++)
     1e8:	0b10                	addi	a2,sp,400
     1ea:	026d                	addi	tp,tp,27
}
     1ec:	0000                	unimp
     1ee:	4304                	lw	s1,0(a4)
    return NULL;
     1f0:	2509                	jal	7f2 <_bss_end+0x66>
     1f2:	0000                	unimp
}
     1f4:	1400                	addi	s0,sp,544
  __asm__ volatile ("li a0, 0" : : : "memory");
     1f6:	0004b10b          	0x4b10b
  __asm__ volatile ("li a0, 0" : : : "memory");
     1fa:	0400                	addi	s0,sp,512
}
     1fc:	0944                	addi	s1,sp,148
  __asm__ volatile ("li a0, 0" : : : "memory");
     1fe:	0025                	c.nop	9
}
     200:	0000                	unimp
  jal x0, default_exc_handler
     202:	0b18                	addi	a4,sp,400
     204:	0372                	slli	t1,t1,0x1c
  mv  x1, x0
     206:	0000                	unimp
     208:	4504                	lw	s1,8(a0)
  mv  x2, x1
     20a:	2509                	jal	80c <_bss_end+0x80>
  mv  x3, x1
     20c:	0000                	unimp
  mv  x4, x1
     20e:	1c00                	addi	s0,sp,560
  mv  x5, x1
     210:	0004ec0b          	0x4ec0b
  mv  x7, x1
     214:	0400                	addi	s0,sp,512
  mv  x8, x1
     216:	0946                	slli	s2,s2,0x11
  mv  x9, x1
     218:	0025                	c.nop	9
  mv x10, x1
     21a:	0000                	unimp
  mv x11, x1
     21c:	0020                	addi	s0,sp,8
  mv x12, x1
     21e:	cc10                	sw	a2,24(s0)
  mv x13, x1
     220:	0000                	unimp
  mv x14, x1
     222:	0800                	addi	s0,sp,16
  mv x15, x1
     224:	0401                	addi	s0,s0,0
  mv x16, x1
     226:	0263084f          	fnmadd.d	fa6,ft6,ft6,ft0,rne
  mv x18, x1
     22a:	0000                	unimp
  mv x19, x1
     22c:	0001530b          	0x1530b
  mv x21, x1
     230:	0400                	addi	s0,sp,512
  mv x22, x1
     232:	0a50                	addi	a2,sp,276
  mv x23, x1
     234:	00000263          	beqz	zero,238 <reset_handler+0x32>
  mv x25, x1
     238:	0b00                	addi	s0,sp,400
  mv x26, x1
     23a:	0000                	unimp
  mv x27, x1
     23c:	0000                	unimp
  mv x28, x1
     23e:	5104                	lw	s1,32(a0)
  mv x29, x1
     240:	6309                	lui	t1,0x2
  mv x30, x1
     242:	0002                	c.slli64	zero
  mv x31, x1
     244:	8000                	0x8000
  la   x2, _stack_start
     246:	5211                	li	tp,-28
     248:	0004                	0x4
     24a:	0400                	addi	s0,sp,512
     24c:	01070a53          	fadd.s	fs4,fa4,fa6,rne
  la x26, _bss_start
     250:	0000                	unimp
  la x27, _bss_end
     252:	0100                	addi	s0,sp,128
     254:	f111                	bnez	a0,158 <check_heap_beebs+0x16>
  bge x26, x27, zero_loop_end
     256:	0000                	unimp
     258:	0400                	addi	s0,sp,512
  sw x0, 0(x26)
     25a:	0a56                	slli	s4,s4,0x15
     25c:	00000107          	0x107
  ble x26, x27, zero_loop
     260:	0104                	addi	s1,sp,128
     262:	0800                	addi	s0,sp,16
  addi x10, x0, 0
     264:	0105                	addi	sp,sp,1
     266:	0000                	unimp
  addi x11, x0, 0
     268:	00000273          	0x273
  jal x1, main
     26c:	2c09                	jal	47e <__DTOR_END__+0x102>
     26e:	0000                	unimp
     270:	1f00                	addi	s0,sp,944
     272:	1000                	addi	s0,sp,32
     274:	000002b3          	add	t0,zero,zero
     278:	0190                	addi	a2,sp,192
     27a:	6204                	flw	fs1,0(a2)
     27c:	b608                	fsd	fa0,40(a2)
     27e:	0002                	c.slli64	zero
     280:	0b00                	addi	s0,sp,400
     282:	03b1                	addi	t2,t2,12
     284:	0000                	unimp
     286:	6304                	flw	fs1,0(a4)
     288:	b612                	fsd	ft4,296(sp)
     28a:	0002                	c.slli64	zero
     28c:	0000                	unimp
     28e:	0003c90b          	0x3c90b
     292:	0400                	addi	s0,sp,512
     294:	0664                	addi	s1,sp,780
     296:	0025                	c.nop	9
     298:	0000                	unimp
     29a:	0b04                	addi	s1,sp,400
     29c:	0164                	addi	s1,sp,140
     29e:	0000                	unimp
     2a0:	6604                	flw	fs1,8(a2)
     2a2:	bc09                	j	fffffcb4 <_stack_start+0xfffefcb4>
     2a4:	0002                	c.slli64	zero
     2a6:	0800                	addi	s0,sp,16
     2a8:	0000cc0b          	0xcc0b
     2ac:	0400                	addi	s0,sp,512
     2ae:	021e1e67          	0x21e1e67
     2b2:	0000                	unimp
     2b4:	0088                	addi	a0,sp,64
     2b6:	0273040f          	0x273040f
     2ba:	0000                	unimp
     2bc:	cc08                	sw	a0,24(s0)
     2be:	0002                	c.slli64	zero
     2c0:	cc00                	sw	s0,24(s0)
     2c2:	0002                	c.slli64	zero
     2c4:	0900                	addi	s0,sp,144
     2c6:	002c                	addi	a1,sp,8
     2c8:	0000                	unimp
     2ca:	001f 040f 02d2      	0x2d2040f001f
     2d0:	0000                	unimp
     2d2:	0d12                	slli	s10,s10,0x4
     2d4:	037c                	addi	a5,sp,396
     2d6:	0000                	unimp
     2d8:	0408                	addi	a0,sp,512
     2da:	087a                	slli	a6,a6,0x1e
     2dc:	000002fb          	0x2fb
     2e0:	0000b70b          	0xb70b
     2e4:	0400                	addi	s0,sp,512
     2e6:	02fb117b          	0x2fb117b
     2ea:	0000                	unimp
     2ec:	0b00                	addi	s0,sp,400
     2ee:	0562                	slli	a0,a0,0x18
     2f0:	0000                	unimp
     2f2:	7c04                	flw	fs1,56(s0)
     2f4:	2506                	fld	fa0,64(sp)
     2f6:	0000                	unimp
     2f8:	0400                	addi	s0,sp,512
     2fa:	0f00                	addi	s0,sp,912
     2fc:	5504                	lw	s1,40(a0)
     2fe:	0000                	unimp
     300:	0d00                	addi	s0,sp,656
     302:	0000039b          	0x39b
     306:	0468                	addi	a0,sp,524
     308:	08ba                	slli	a7,a7,0xe
     30a:	0444                	addi	s1,sp,516
     30c:	0000                	unimp
     30e:	5f0e                	lw	t5,224(sp)
     310:	0070                	addi	a2,sp,12
     312:	bb04                	fsd	fs1,48(a4)
     314:	fb12                	fsw	ft4,180(sp)
     316:	0002                	c.slli64	zero
     318:	0000                	unimp
     31a:	5f0e                	lw	t5,224(sp)
     31c:	0072                	c.slli	zero,0x1c
     31e:	bc04                	fsd	fs1,56(s0)
     320:	00002507          	flw	fa0,0(zero) # 0 <__DYNAMIC>
     324:	0400                	addi	s0,sp,512
     326:	5f0e                	lw	t5,224(sp)
     328:	bd040077          	0xbd040077
     32c:	00002507          	flw	fa0,0(zero) # 0 <__DYNAMIC>
     330:	0800                	addi	s0,sp,16
     332:	0000ea0b          	0xea0b
     336:	0400                	addi	s0,sp,512
     338:	09be                	slli	s3,s3,0xf
     33a:	005c                	addi	a5,sp,4
     33c:	0000                	unimp
     33e:	0b0c                	addi	a1,sp,400
     340:	04a6                	slli	s1,s1,0x9
     342:	0000                	unimp
     344:	bf04                	fsd	fs1,56(a4)
     346:	5c09                	li	s8,-30
     348:	0000                	unimp
     34a:	0e00                	addi	s0,sp,784
{
     34c:	5f0e                	lw	t5,224(sp)
     34e:	6662                	flw	fa2,24(sp)
  initialise_board ();
     350:	0400                	addi	s0,sp,512
  initialise_benchmark ();
     352:	11c0                	addi	s0,sp,228
  warm_caches (WARMUP_HEAT);
     354:	000002d3          	fadd.s	ft5,ft0,ft0,rne
  start_trigger ();
     358:	0b10                	addi	a2,sp,400
  result = benchmark ();
     35a:	00000057          	0x57
  stop_trigger ();
     35e:	c104                	sw	s1,0(a0)
  correct = verify_benchmark (result);
     360:	00002507          	flw	fa0,0(zero) # 0 <__DYNAMIC>
     364:	1800                	addi	s0,sp,48
    asm("wfi");
     366:	0000da0b          	0xda0b
     36a:	0400                	addi	s0,sp,512
     36c:	0ac8                	addi	a0,sp,340
     36e:	0105                	addi	sp,sp,1
     370:	0000                	unimp
     372:	0b1c                	addi	a5,sp,400
     374:	01d4                	addi	a3,sp,196
     376:	0000                	unimp
     378:	ca04                	sw	s1,16(a2)
     37a:	c81d                	beqz	s0,3b0 <__DTOR_END__+0x34>
     37c:	0005                	c.nop	1
     37e:	2000                	fld	fs0,0(s0)
     380:	0002660b          	0x2660b
     384:	0400                	addi	s0,sp,512
     386:	1dcc                	addi	a1,sp,756
     388:	05f2                	slli	a1,a1,0x1c
     38a:	0000                	unimp
     38c:	0b24                	addi	s1,sp,408
     38e:	0418                	addi	a4,sp,512
     390:	0000                	unimp
     392:	cf04                	sw	s1,24(a4)
     394:	160d                	addi	a2,a2,-29
     396:	0006                	c.slli	zero,0x1
     398:	2800                	fld	fs0,16(s0)
     39a:	0005060b          	0x5060b
     39e:	0400                	addi	s0,sp,512
     3a0:	09d0                	addi	a2,sp,212
     3a2:	0630                	addi	a2,sp,776
     3a4:	0000                	unimp
     3a6:	0e2c                	addi	a1,sp,792
     3a8:	755f 0062 d304      	0xd3040062755f
     3ae:	d311                	beqz	a4,2b2 <memset+0x42>
     3b0:	0002                	c.slli64	zero
     3b2:	3000                	fld	fs0,32(s0)
     3b4:	5f0e                	lw	t5,224(sp)
     3b6:	7075                	c.lui	zero,0xffffd
     3b8:	0400                	addi	s0,sp,512
     3ba:	12d4                	addi	a3,sp,356
     3bc:	000002fb          	0x2fb
     3c0:	0e38                	addi	a4,sp,792
     3c2:	755f 0072 d504      	0xd5040072755f
     3c8:	00002507          	flw	fa0,0(zero) # 0 <__DYNAMIC>
     3cc:	3c00                	fld	fs0,56(s0)
     3ce:	0000b10b          	0xb10b
     3d2:	0400                	addi	s0,sp,512
     3d4:	11d8                	addi	a4,sp,228
     3d6:	0636                	slli	a2,a2,0xd
     3d8:	0000                	unimp
     3da:	0b40                	addi	s0,sp,404
     3dc:	04de                	slli	s1,s1,0x17
     3de:	0000                	unimp
     3e0:	d904                	sw	s1,48(a0)
     3e2:	4611                	li	a2,4
     3e4:	0006                	c.slli	zero,0x1
     3e6:	4300                	lw	s0,0(a4)
     3e8:	5f0e                	lw	t5,224(sp)
     3ea:	626c                	flw	fa1,68(a2)
     3ec:	0400                	addi	s0,sp,512
     3ee:	11dc                	addi	a5,sp,228
     3f0:	000002d3          	fadd.s	ft5,ft0,ft0,rne
     3f4:	0b44                	addi	s1,sp,404
     3f6:	0100                	addi	s0,sp,128
     3f8:	0000                	unimp
     3fa:	df04                	sw	s1,56(a4)
     3fc:	00002507          	flw	fa0,0(zero) # 0 <__DYNAMIC>
     400:	4c00                	lw	s0,24(s0)
     402:	00012c0b          	0x12c0b
     406:	0400                	addi	s0,sp,512
     408:	0ae0                	addi	s0,sp,348
     40a:	007f                	0x7f
     40c:	0000                	unimp
     40e:	0b50                	addi	a2,sp,404
     410:	001a                	c.slli	zero,0x6
     412:	0000                	unimp
     414:	e304                	fsw	fs1,0(a4)
     416:	6212                	flw	ft4,4(sp)
     418:	0004                	0x4
     41a:	5400                	lw	s0,40(s0)
     41c:	0002580b          	0x2580b
     420:	0400                	addi	s0,sp,512
     422:	011f0ce7          	jalr	s9,17(t5)
     426:	0000                	unimp
     428:	0b58                	addi	a4,sp,404
     42a:	000003a3          	sb	zero,7(zero) # 7 <__DYNAMIC+0x7>
     42e:	e904                	fsw	fs1,16(a0)
     430:	f90e                	fsw	ft3,176(sp)
     432:	0000                	unimp
     434:	5c00                	lw	s0,56(s0)
     436:	00025e0b          	0x25e0b
     43a:	0400                	addi	s0,sp,512
     43c:	09ea                	slli	s3,s3,0x1a
     43e:	0025                	c.nop	9
     440:	0000                	unimp
     442:	0064                	addi	s1,sp,12
     444:	00009713          	slli	a4,ra,0x0
     448:	6200                	flw	fs0,0(a2)
     44a:	0004                	0x4
     44c:	1400                	addi	s0,sp,544
     44e:	0462                	slli	s0,s0,0x18
     450:	0000                	unimp
     452:	0514                	addi	a3,sp,640
     454:	0001                	nop
     456:	1400                	addi	s0,sp,544
     458:	05b6                	slli	a1,a1,0xd
     45a:	0000                	unimp
     45c:	2514                	fld	fa3,8(a0)
     45e:	0000                	unimp
     460:	0000                	unimp
     462:	046d040f          	0x46d040f
     466:	0000                	unimp
     468:	6215                	lui	tp,0x5
     46a:	0004                	0x4
     46c:	1600                	addi	s0,sp,800
     46e:	0401                	addi	s0,s0,0
     470:	0000                	unimp
     472:	0428                	addi	a0,sp,520
     474:	6504                	flw	fs1,8(a0)
     476:	0802                	c.slli64	a6
     478:	05b6                	slli	a1,a1,0xd
     47a:	0000                	unimp
     47c:	00036117          	auipc	sp,0x36
     480:	0400                	addi	s0,sp,512
     482:	25070267          	jalr	tp,592(a4)
     486:	0000                	unimp
     488:	0000                	unimp
     48a:	0000f917          	auipc	s2,0xf
     48e:	0400                	addi	s0,sp,512
     490:	026c                	addi	a1,sp,268
     492:	0006a20b          	0x6a20b
     496:	0400                	addi	s0,sp,512
     498:	0001f017          	auipc	zero,0x1f
     49c:	0400                	addi	s0,sp,512
     49e:	026c                	addi	a1,sp,268
     4a0:	a214                	fsd	fa3,0(a2)
     4a2:	0006                	c.slli	zero,0x1
     4a4:	0800                	addi	s0,sp,16
     4a6:	0001b017          	auipc	zero,0x1b
     4aa:	0400                	addi	s0,sp,512
     4ac:	026c                	addi	a1,sp,268
     4ae:	a21e                	fsd	ft7,256(sp)
     4b0:	0006                	c.slli	zero,0x1
     4b2:	0c00                	addi	s0,sp,528
     4b4:	0003c417          	auipc	s0,0x3c
     4b8:	0400                	addi	s0,sp,512
     4ba:	026e                	slli	tp,tp,0x1b
     4bc:	2508                	fld	fa0,8(a0)
     4be:	0000                	unimp
     4c0:	1000                	addi	s0,sp,32
     4c2:	00043417          	auipc	s0,0x43
     4c6:	0400                	addi	s0,sp,512
     4c8:	a208026f          	jal	tp,fff806e8 <_stack_start+0xfff706e8>
     4cc:	0008                	0x8
     4ce:	1400                	addi	s0,sp,544
     4d0:	0003e017          	auipc	zero,0x3e
     4d4:	0400                	addi	s0,sp,512
     4d6:	0272                	slli	tp,tp,0x1c
     4d8:	00002507          	flw	fa0,0(zero) # 0 <__DYNAMIC>
     4dc:	3000                	fld	fs0,32(s0)
     4de:	0003ce17          	auipc	t3,0x3c
     4e2:	0400                	addi	s0,sp,512
     4e4:	b7160273          	0xb7160273
     4e8:	0008                	0x8
     4ea:	3400                	fld	fs0,40(s0)
     4ec:	0002c517          	auipc	a0,0x2c
     4f0:	0400                	addi	s0,sp,512
     4f2:	0275                	addi	tp,tp,29
     4f4:	00002507          	flw	fa0,0(zero) # 0 <__DYNAMIC>
     4f8:	3800                	fld	fs0,48(s0)
     4fa:	0003d617          	auipc	a2,0x3d
     4fe:	0400                	addi	s0,sp,512
     500:	c80a0277          	0xc80a0277
     504:	0008                	0x8
     506:	3c00                	fld	fs0,56(s0)
     508:	00024317          	auipc	t1,0x24
     50c:	0400                	addi	s0,sp,512
     50e:	027a                	slli	tp,tp,0x1e
     510:	00018513          	mv	a0,gp
     514:	4000                	lw	s0,0(s0)
     516:	0001da17          	auipc	s4,0x1d
     51a:	0400                	addi	s0,sp,512
     51c:	2507027b          	0x2507027b
     520:	0000                	unimp
     522:	4400                	lw	s0,8(s0)
     524:	00052017          	auipc	zero,0x52
     528:	0400                	addi	s0,sp,512
     52a:	027c                	addi	a5,sp,268
     52c:	00018513          	mv	a0,gp
     530:	4800                	lw	s0,16(s0)
     532:	00032417          	auipc	s0,0x32
     536:	0400                	addi	s0,sp,512
     538:	027d                	addi	tp,tp,31
     53a:	ce14                	sw	a3,24(a2)
     53c:	0008                	0x8
     53e:	4c00                	lw	s0,24(s0)
     540:	0001f817          	auipc	a6,0x1f
     544:	0400                	addi	s0,sp,512
     546:	0280                	addi	s0,sp,320
     548:	00002507          	flw	fa0,0(zero) # 0 <__DYNAMIC>
     54c:	5000                	lw	s0,32(s0)
     54e:	00012417          	auipc	s0,0x12
     552:	0400                	addi	s0,sp,512
     554:	0281                	addi	t0,t0,0
     556:	b609                	j	58 <__DYNAMIC+0x58>
     558:	0005                	c.nop	1
     55a:	5400                	lw	s0,40(s0)
     55c:	00035a17          	auipc	s4,0x35
     560:	0400                	addi	s0,sp,512
     562:	02a4                	addi	s1,sp,328
     564:	00087d07          	0x87d07
     568:	5800                	lw	s0,48(s0)
     56a:	b318                	fsd	fa4,32(a4)
     56c:	0002                	c.slli64	zero
     56e:	0400                	addi	s0,sp,512
     570:	02a8                	addi	a0,sp,328
     572:	0002b613          	sltiu	a2,t0,0
     576:	4800                	lw	s0,16(s0)
     578:	1801                	addi	a6,a6,-32
     57a:	0221                	addi	tp,tp,8
     57c:	0000                	unimp
     57e:	a904                	fsd	fs1,16(a0)
     580:	1202                	slli	tp,tp,0x20
     582:	00000273          	0x273
     586:	014c                	addi	a1,sp,132
     588:	d418                	sw	a4,40(s0)
     58a:	0004                	0x4
     58c:	0400                	addi	s0,sp,512
     58e:	02ad                	addi	t0,t0,11
     590:	df0c                	sw	a1,56(a4)
     592:	0008                	0x8
     594:	dc00                	sw	s0,56(s0)
     596:	1802                	slli	a6,a6,0x20
     598:	00e2                	slli	ra,ra,0x18
     59a:	0000                	unimp
     59c:	b204                	fsd	fs1,32(a2)
     59e:	1002                	c.slli	zero,0x20
     5a0:	00000663          	beqz	zero,5ac <__DTOR_END__+0x230>
     5a4:	02e0                	addi	s0,sp,332
     5a6:	c718                	sw	a4,8(a4)
     5a8:	0000                	unimp
     5aa:	0400                	addi	s0,sp,512
     5ac:	02b4                	addi	a3,sp,328
     5ae:	eb0a                	fsw	ft2,148(sp)
     5b0:	0008                	0x8
     5b2:	ec00                	fsw	fs0,24(s0)
     5b4:	0002                	c.slli64	zero
     5b6:	05bc040f          	0x5bc040f
     5ba:	0000                	unimp
     5bc:	55080103          	lb	sp,1360(a6) # 1fa90 <_stack_start+0xfa90>
     5c0:	15000003          	lb	zero,336(zero) # 150 <check_heap_beebs+0xe>
     5c4:	05bc                	addi	a5,sp,712
     5c6:	0000                	unimp
     5c8:	0444040f          	0x444040f
     5cc:	0000                	unimp
     5ce:	00009713          	slli	a4,ra,0x0
     5d2:	ec00                	fsw	fs0,24(s0)
     5d4:	0005                	c.nop	1
     5d6:	1400                	addi	s0,sp,544
     5d8:	0462                	slli	s0,s0,0x18
     5da:	0000                	unimp
     5dc:	0514                	addi	a3,sp,640
     5de:	0001                	nop
     5e0:	1400                	addi	s0,sp,544
     5e2:	05ec                	addi	a1,sp,716
     5e4:	0000                	unimp
     5e6:	2514                	fld	fa3,8(a0)
     5e8:	0000                	unimp
     5ea:	0000                	unimp
     5ec:	05c3040f          	0x5c3040f
     5f0:	0000                	unimp
     5f2:	05ce040f          	0x5ce040f
     5f6:	0000                	unimp
     5f8:	00008b13          	mv	s6,ra
     5fc:	1600                	addi	s0,sp,800
     5fe:	0006                	c.slli	zero,0x1
     600:	1400                	addi	s0,sp,544
     602:	0462                	slli	s0,s0,0x18
     604:	0000                	unimp
     606:	0514                	addi	a3,sp,640
     608:	0001                	nop
     60a:	1400                	addi	s0,sp,544
     60c:	0000008b          	0x8b
     610:	2514                	fld	fa3,8(a0)
     612:	0000                	unimp
     614:	0000                	unimp
     616:	05f8040f          	0x5f8040f
     61a:	0000                	unimp
     61c:	00002513          	slti	a0,zero,0
     620:	3000                	fld	fs0,32(s0)
     622:	0006                	c.slli	zero,0x1
     624:	1400                	addi	s0,sp,544
     626:	0462                	slli	s0,s0,0x18
     628:	0000                	unimp
     62a:	0514                	addi	a3,sp,640
     62c:	0001                	nop
     62e:	0000                	unimp
     630:	061c040f          	0x61c040f
     634:	0000                	unimp
     636:	5508                	lw	a0,40(a0)
     638:	0000                	unimp
     63a:	4600                	lw	s0,8(a2)
     63c:	0006                	c.slli	zero,0x1
     63e:	0900                	addi	s0,sp,144
     640:	002c                	addi	a1,sp,8
     642:	0000                	unimp
     644:	0002                	c.slli64	zero
     646:	5508                	lw	a0,40(a0)
     648:	0000                	unimp
     64a:	5600                	lw	s0,40(a2)
     64c:	0006                	c.slli	zero,0x1
     64e:	0900                	addi	s0,sp,144
     650:	002c                	addi	a1,sp,8
     652:	0000                	unimp
     654:	0000                	unimp
     656:	8904                	0x8904
     658:	04000003          	lb	zero,64(zero) # 40 <__DYNAMIC+0x40>
     65c:	0124                	addi	s1,sp,136
     65e:	011a                	slli	sp,sp,0x6
     660:	19000003          	lb	zero,400(zero) # 190 <calloc_beebs+0x8>
     664:	000004bb          	0x4bb
     668:	040c                	addi	a1,sp,512
     66a:	0128                	addi	a0,sp,136
     66c:	9c08                	0x9c08
     66e:	0006                	c.slli	zero,0x1
     670:	1700                	addi	s0,sp,928
     672:	03b1                	addi	t2,t2,12
     674:	0000                	unimp
     676:	2a04                	fld	fs1,16(a2)
     678:	1101                	addi	sp,sp,-32
     67a:	069c                	addi	a5,sp,832
     67c:	0000                	unimp
     67e:	1700                	addi	s0,sp,928
     680:	00000207          	0x207
     684:	2b04                	fld	fs1,16(a4)
     686:	0701                	addi	a4,a4,0
     688:	0025                	c.nop	9
     68a:	0000                	unimp
     68c:	1704                	addi	s1,sp,928
     68e:	00000383          	lb	t2,0(zero) # 0 <__DYNAMIC>
     692:	2c04                	fld	fs1,24(s0)
     694:	0b01                	addi	s6,s6,0
     696:	06a2                	slli	a3,a3,0x8
     698:	0000                	unimp
     69a:	0008                	0x8
     69c:	0663040f          	0x663040f
     6a0:	0000                	unimp
     6a2:	0656040f          	0x656040f
     6a6:	0000                	unimp
     6a8:	0c19                	addi	s8,s8,6
     6aa:	0000                	unimp
     6ac:	0e00                	addi	s0,sp,784
     6ae:	4404                	lw	s1,8(s0)
     6b0:	0801                	addi	a6,a6,0
     6b2:	06e1                	addi	a3,a3,24
     6b4:	0000                	unimp
     6b6:	0005ac17          	auipc	s8,0x5a
     6ba:	0400                	addi	s0,sp,512
     6bc:	0145                	addi	sp,sp,17
     6be:	e112                	fsw	ft4,128(sp)
     6c0:	0006                	c.slli	zero,0x1
     6c2:	0000                	unimp
     6c4:	00043f17          	auipc	t5,0x43
     6c8:	0400                	addi	s0,sp,512
     6ca:	0146                	slli	sp,sp,0x11
     6cc:	e112                	fsw	ft4,128(sp)
     6ce:	0006                	c.slli	zero,0x1
     6d0:	0600                	addi	s0,sp,768
     6d2:	00045b17          	auipc	s6,0x45
     6d6:	0400                	addi	s0,sp,512
     6d8:	63120147          	fmsub.d	ft2,ft4,fa7,fa2,rne
     6dc:	0000                	unimp
     6de:	0c00                	addi	s0,sp,528
     6e0:	0800                	addi	s0,sp,16
     6e2:	00000063          	beqz	zero,6e2 <__DTOR_END__+0x366>
     6e6:	06f1                	addi	a3,a3,28
     6e8:	0000                	unimp
     6ea:	2c09                	jal	8fc <_bss_end+0x170>
     6ec:	0000                	unimp
     6ee:	0200                	addi	s0,sp,256
     6f0:	1a00                	addi	s0,sp,304
     6f2:	04d0                	addi	a2,sp,580
     6f4:	0285                	addi	t0,t0,1
     6f6:	00080607          	0x80607
     6fa:	1700                	addi	s0,sp,928
     6fc:	0488                	addi	a0,sp,576
     6fe:	0000                	unimp
     700:	8704                	0x8704
     702:	1802                	slli	a6,a6,0x20
     704:	002c                	addi	a1,sp,8
     706:	0000                	unimp
     708:	1700                	addi	s0,sp,928
     70a:	0445                	addi	s0,s0,17
     70c:	0000                	unimp
     70e:	8804                	0x8804
     710:	1202                	slli	tp,tp,0x20
     712:	05b6                	slli	a1,a1,0xd
     714:	0000                	unimp
     716:	1704                	addi	s1,sp,928
     718:	0236                	slli	tp,tp,0xd
     71a:	0000                	unimp
     71c:	8904                	0x8904
     71e:	1002                	c.slli	zero,0x20
     720:	0806                	slli	a6,a6,0x1
     722:	0000                	unimp
     724:	1708                	addi	a0,sp,928
     726:	000004f7          	0x4f7
     72a:	8a04                	0x8a04
     72c:	1702                	slli	a4,a4,0x20
     72e:	0000019b          	0x19b
     732:	1724                	addi	s1,sp,936
     734:	01c0                	addi	s0,sp,196
     736:	0000                	unimp
     738:	8b04                	0x8b04
     73a:	0f02                	c.slli64	t5
     73c:	0025                	c.nop	9
     73e:	0000                	unimp
     740:	1748                	addi	a0,sp,932
     742:	03ac                	addi	a1,sp,456
     744:	0000                	unimp
     746:	8c04                	0x8c04
     748:	2c02                	fld	fs8,0(sp)
     74a:	0078                	addi	a4,sp,12
     74c:	0000                	unimp
     74e:	1750                	addi	a2,sp,932
     750:	050d                	addi	a0,a0,3
     752:	0000                	unimp
     754:	8d04                	0x8d04
     756:	1a02                	slli	s4,s4,0x20
     758:	06a8                	addi	a0,sp,840
     75a:	0000                	unimp
     75c:	1758                	addi	a4,sp,932
     75e:	000003b7          	lui	t2,0x0
     762:	8e04                	0x8e04
     764:	1602                	slli	a2,a2,0x20
     766:	00f9                	addi	ra,ra,30
     768:	0000                	unimp
     76a:	1768                	addi	a0,sp,940
     76c:	0512                	slli	a0,a0,0x4
     76e:	0000                	unimp
     770:	8f04                	0x8f04
     772:	1602                	slli	a2,a2,0x20
     774:	00f9                	addi	ra,ra,30
     776:	0000                	unimp
     778:	1770                	addi	a2,sp,940
     77a:	0080                	addi	s0,sp,64
     77c:	0000                	unimp
     77e:	9004                	0x9004
     780:	1602                	slli	a2,a2,0x20
     782:	00f9                	addi	ra,ra,30
     784:	0000                	unimp
     786:	1778                	addi	a4,sp,940
     788:	04ca                	slli	s1,s1,0x12
     78a:	0000                	unimp
     78c:	9104                	0x9104
     78e:	1002                	c.slli	zero,0x20
     790:	0816                	slli	a6,a6,0x5
     792:	0000                	unimp
     794:	1780                	addi	s0,sp,992
     796:	022a                	slli	tp,tp,0xa
     798:	0000                	unimp
     79a:	9204                	0x9204
     79c:	1002                	c.slli	zero,0x20
     79e:	0826                	slli	a6,a6,0x9
     7a0:	0000                	unimp
     7a2:	1788                	addi	a0,sp,992
     7a4:	0468                	addi	a0,sp,524
     7a6:	0000                	unimp
     7a8:	9304                	0x9304
     7aa:	0f02                	c.slli64	t5
     7ac:	0025                	c.nop	9
     7ae:	0000                	unimp
     7b0:	17a0                	addi	s0,sp,1000
     7b2:	0145                	addi	sp,sp,17
     7b4:	0000                	unimp
     7b6:	9404                	0x9404
     7b8:	1602                	slli	a2,a2,0x20
     7ba:	00f9                	addi	ra,ra,30
     7bc:	0000                	unimp
     7be:	17a4                	addi	s1,sp,1000
     7c0:	0000006b          	0x6b
     7c4:	9504                	0x9504
     7c6:	1602                	slli	a2,a2,0x20
     7c8:	00f9                	addi	ra,ra,30
     7ca:	0000                	unimp
     7cc:	17ac                	addi	a1,sp,1000
     7ce:	0134                	addi	a3,sp,136
     7d0:	0000                	unimp
     7d2:	9604                	0x9604
     7d4:	1602                	slli	a2,a2,0x20
     7d6:	00f9                	addi	ra,ra,30
     7d8:	0000                	unimp
     7da:	17b4                	addi	a3,sp,1000
     7dc:	0020                	addi	s0,sp,8
     7de:	0000                	unimp
     7e0:	9704                	0x9704
     7e2:	1602                	slli	a2,a2,0x20
     7e4:	00f9                	addi	ra,ra,30
     7e6:	0000                	unimp
     7e8:	17bc                	addi	a5,sp,1000
     7ea:	0000002f          	0x2f
     7ee:	9804                	0x9804
     7f0:	1602                	slli	a2,a2,0x20
     7f2:	00f9                	addi	ra,ra,30
     7f4:	0000                	unimp
     7f6:	17c4                	addi	s1,sp,996
     7f8:	035f 0000 9904      	0x99040000035f
     7fe:	0802                	c.slli64	a6
     800:	0025                	c.nop	9
     802:	0000                	unimp
     804:	00cc                	addi	a1,sp,68
     806:	bc08                	fsd	fa0,56(s0)
     808:	0005                	c.nop	1
     80a:	1600                	addi	s0,sp,800
     80c:	0008                	0x8
     80e:	0900                	addi	s0,sp,144
     810:	002c                	addi	a1,sp,8
     812:	0000                	unimp
     814:	0019                	c.nop	6
     816:	bc08                	fsd	fa0,56(s0)
     818:	0005                	c.nop	1
     81a:	2600                	fld	fs0,8(a2)
     81c:	0008                	0x8
     81e:	0900                	addi	s0,sp,144
     820:	002c                	addi	a1,sp,8
     822:	0000                	unimp
     824:	bc080007          	0xbc080007
     828:	0005                	c.nop	1
     82a:	3600                	fld	fs0,40(a2)
     82c:	0008                	0x8
     82e:	0900                	addi	s0,sp,144
     830:	002c                	addi	a1,sp,8
     832:	0000                	unimp
     834:	f01a0017          	auipc	zero,0xf01a0
     838:	9e04                	0x9e04
     83a:	0702                	c.slli64	a4
     83c:	085d                	addi	a6,a6,23
     83e:	0000                	unimp
     840:	00029817          	auipc	a6,0x29
     844:	0400                	addi	s0,sp,512
     846:	02a1                	addi	t0,t0,8
     848:	00085d1b          	0x85d1b
     84c:	0000                	unimp
     84e:	00027717          	auipc	a4,0x27
     852:	0400                	addi	s0,sp,512
     854:	02a2                	slli	t0,t0,0x8
     856:	6d18                	flw	fa4,24(a0)
     858:	0008                	0x8
     85a:	7800                	flw	fs0,48(s0)
     85c:	0800                	addi	s0,sp,16
     85e:	000002fb          	0x2fb
     862:	086d                	addi	a6,a6,27
     864:	0000                	unimp
     866:	2c09                	jal	a78 <_bss_end+0x2ec>
     868:	0000                	unimp
     86a:	1d00                	addi	s0,sp,688
     86c:	0800                	addi	s0,sp,16
     86e:	002c                	addi	a1,sp,8
     870:	0000                	unimp
     872:	087d                	addi	a6,a6,31
     874:	0000                	unimp
     876:	2c09                	jal	a88 <_bss_end+0x2fc>
     878:	0000                	unimp
     87a:	1d00                	addi	s0,sp,688
     87c:	1b00                	addi	s0,sp,432
     87e:	04f0                	addi	a2,sp,588
     880:	a2030283          	lb	t0,-1504(t1) # 23f28 <_stack_start+0x13f28>
     884:	0008                	0x8
     886:	1c00                	addi	s0,sp,560
     888:	0401                	addi	s0,s0,0
     88a:	0000                	unimp
     88c:	9a04                	0x9a04
     88e:	0b02                	c.slli64	s6
     890:	06f1                	addi	a3,a3,28
     892:	0000                	unimp
     894:	e41c                	fsw	fa5,8(s0)
     896:	0004                	0x4
     898:	0400                	addi	s0,sp,512
     89a:	360b02a3          	sb	zero,869(s6) # 45a37 <_stack_start+0x35a37>
     89e:	0008                	0x8
     8a0:	0000                	unimp
     8a2:	bc08                	fsd	fa0,56(s0)
     8a4:	0005                	c.nop	1
     8a6:	b200                	fsd	fs0,32(a2)
     8a8:	0008                	0x8
     8aa:	0900                	addi	s0,sp,144
     8ac:	002c                	addi	a1,sp,8
     8ae:	0000                	unimp
     8b0:	0018                	0x18
     8b2:	601d                	c.lui	zero,0x7
     8b4:	0000                	unimp
     8b6:	0f00                	addi	s0,sp,912
     8b8:	b204                	fsd	fs1,32(a2)
     8ba:	0008                	0x8
     8bc:	1e00                	addi	s0,sp,816
     8be:	08c8                	addi	a0,sp,84
     8c0:	0000                	unimp
     8c2:	6214                	flw	fa3,0(a2)
     8c4:	0004                	0x4
     8c6:	0000                	unimp
     8c8:	08bd040f          	0x8bd040f
     8cc:	0000                	unimp
     8ce:	0185040f          	0x185040f
     8d2:	0000                	unimp
     8d4:	df1e                	sw	t2,188(sp)
     8d6:	0008                	0x8
     8d8:	1400                	addi	s0,sp,544
     8da:	0025                	c.nop	9
     8dc:	0000                	unimp
     8de:	0f00                	addi	s0,sp,912
     8e0:	e504                	fsw	fs1,8(a0)
     8e2:	0008                	0x8
     8e4:	0f00                	addi	s0,sp,912
     8e6:	d404                	sw	s1,40(s0)
     8e8:	0008                	0x8
     8ea:	0800                	addi	s0,sp,16
     8ec:	0656                	slli	a2,a2,0x15
     8ee:	0000                	unimp
     8f0:	000008fb          	0x8fb
     8f4:	2c09                	jal	b06 <_bss_end+0x37a>
     8f6:	0000                	unimp
     8f8:	0200                	addi	s0,sp,256
     8fa:	1f00                	addi	s0,sp,944
     8fc:	047c                	addi	a5,sp,524
     8fe:	0000                	unimp
     900:	3304                	fld	fs1,32(a4)
     902:	04621703          	lh	a4,70(tp) # 5046 <_stack_len+0x1046>
     906:	0000                	unimp
     908:	751f 0004 0400      	0x4000004751f
     90e:	0334                	addi	a3,sp,392
     910:	681d                	lui	a6,0x7
     912:	0004                	0x4
     914:	2000                	fld	fs0,0(s0)
     916:	000002bb          	0x2bb
     91a:	6706                	flw	fa4,64(sp)
     91c:	b60e                	fsd	ft3,296(sp)
     91e:	0005                	c.nop	1
     920:	0500                	addi	s0,sp,640
     922:	000001cf          	fnmadd.s	ft3,ft0,ft0,ft0,rne
     926:	2d01                	jal	f36 <_bss_end+0x7aa>
     928:	00005517          	auipc	a0,0x5
     92c:	0500                	addi	s0,sp,640
     92e:	007a                	c.slli	zero,0x1e
     930:	0000                	unimp
     932:	2e01                	jal	c42 <_bss_end+0x4b6>
     934:	00007117          	auipc	sp,0x7
     938:	0500                	addi	s0,sp,640
     93a:	0109                	addi	sp,sp,2
     93c:	0000                	unimp
     93e:	3501                	jal	73e <__DTOR_END__+0x3c2>
     940:	00092d0f          	0x92d0f
     944:	1500                	addi	s0,sp,672
     946:	0939                	addi	s2,s2,14
     948:	0000                	unimp
     94a:	4508                	lw	a0,8(a0)
     94c:	0009                	c.nop	2
     94e:	5a00                	lw	s0,48(a2)
     950:	0009                	c.nop	2
     952:	0900                	addi	s0,sp,144
     954:	002c                	addi	a1,sp,8
     956:	0000                	unimp
     958:	00ff                	0xff
     95a:	4a15                	li	s4,5
     95c:	0009                	c.nop	2
     95e:	2100                	fld	fs0,0(a0)
     960:	029f 0000 6801      	0x68010000029f
     966:	5a1a                	lw	s4,164(sp)
     968:	0009                	c.nop	2
     96a:	0500                	addi	s0,sp,640
     96c:	00037c03          	0x37c03
     970:	2200                	fld	fs0,0(a2)
     972:	0495                	addi	s1,s1,5
     974:	0000                	unimp
     976:	d001                	beqz	s0,876 <_bss_end+0xea>
     978:	2501                	jal	f78 <_bss_end+0x7ec>
     97a:	0000                	unimp
     97c:	fa00                	fsw	fs0,48(a2)
     97e:	0000                	unimp
     980:	0e00                	addi	s0,sp,784
     982:	0000                	unimp
     984:	0100                	addi	s0,sp,128
     986:	9a9c                	0x9a9c
     988:	0009                	c.nop	2
     98a:	2300                	fld	fs0,0(a4)
     98c:	0072                	c.slli	zero,0x1c
     98e:	d001                	beqz	s0,88e <_bss_end+0x102>
     990:	00002517          	auipc	a0,0x2
     994:	0000                	unimp
     996:	0000                	unimp
     998:	0000                	unimp
     99a:	1524                	addi	s1,sp,680
     99c:	0001                	nop
     99e:	0100                	addi	s0,sp,128
     9a0:	01c0                	addi	s0,sp,196
     9a2:	0025                	c.nop	9
     9a4:	0000                	unimp
     9a6:	00c6                	slli	ra,ra,0x11
     9a8:	0000                	unimp
     9aa:	002c                	addi	a1,sp,8
     9ac:	0000                	unimp
     9ae:	9c01                	0x9c01
     9b0:	09fd                	addi	s3,s3,31
     9b2:	0000                	unimp
     9b4:	74707223          	0x74707223
     9b8:	0100                	addi	s0,sp,128
     9ba:	15c0                	addi	s0,sp,740
     9bc:	0025                	c.nop	9
     9be:	0000                	unimp
     9c0:	0030                	addi	a2,sp,8
     9c2:	0000                	unimp
     9c4:	6925                	lui	s2,0x9
     9c6:	0100                	addi	s0,sp,128
     9c8:	07c2                	slli	a5,a5,0x10
     9ca:	0025                	c.nop	9
     9cc:	0000                	unimp
     9ce:	00000067          	jr	zero # 0 <__DYNAMIC>
     9d2:	7225                	lui	tp,0xfffe9
     9d4:	0100                	addi	s0,sp,128
     9d6:	092d09c3          	fmadd.s	fs3,fs10,fs2,ft1,rne
     9da:	0000                	unimp
     9dc:	0091                	addi	ra,ra,4
     9de:	0000                	unimp
     9e0:	ea26                	fsw	fs1,20(sp)
     9e2:	0000                	unimp
     9e4:	bf00                	fsd	fs0,56(a4)
     9e6:	000a                	c.slli	zero,0x2
     9e8:	f300                	fsw	fs0,32(a4)
     9ea:	0009                	c.nop	2
     9ec:	2700                	fld	fs0,8(a4)
     9ee:	5a01                	li	s4,-32
     9f0:	3001                	jal	1f0 <realloc_beebs+0x44>
     9f2:	2800                	fld	fs0,16(s0)
     9f4:	00ec                	addi	a1,sp,76
     9f6:	0000                	unimp
     9f8:	0a7d                	addi	s4,s4,31
     9fa:	0000                	unimp
     9fc:	2200                	fld	fs0,0(a2)
     9fe:	0539                	addi	a0,a0,14
     a00:	0000                	unimp
     a02:	b901                	j	612 <__DTOR_END__+0x296>
     a04:	2501                	jal	1004 <_bss_end+0x878>
     a06:	0000                	unimp
     a08:	f600                	fsw	fs0,40(a2)
     a0a:	0000                	unimp
     a0c:	0400                	addi	s0,sp,512
     a0e:	0000                	unimp
     a10:	0100                	addi	s0,sp,128
     a12:	279c                	fld	fa5,8(a5)
     a14:	000a                	c.slli	zero,0x2
     a16:	2900                	fld	fs0,16(a0)
     a18:	00fa                	slli	ra,ra,0x1e
     a1a:	0000                	unimp
     a1c:	099a                	slli	s3,s3,0x6
     a1e:	0000                	unimp
     a20:	015a0127          	0x15a0127
     a24:	0031                	c.nop	12
     a26:	2a00                	fld	fs0,16(a2)
     a28:	0340                	addi	s0,sp,388
     a2a:	0000                	unimp
     a2c:	b001                	j	22c <reset_handler+0x26>
     a2e:	f401                	bnez	s0,936 <_bss_end+0x1aa>
     a30:	0000                	unimp
     a32:	0200                	addi	s0,sp,256
     a34:	0000                	unimp
     a36:	0100                	addi	s0,sp,128
     a38:	6b9c                	flw	fa5,16(a5)
     a3a:	000a                	c.slli	zero,0x2
     a3c:	2b00                	fld	fs0,16(a4)
     a3e:	0426                	slli	s0,s0,0x9
     a40:	0000                	unimp
     a42:	b001                	j	242 <reset_handler+0x3c>
     a44:	00002513          	slti	a0,zero,0
     a48:	af00                	fsd	fs0,24(a4)
     a4a:	0000                	unimp
     a4c:	2c00                	fld	fs0,24(s0)
     a4e:	6572                	flw	fa0,28(sp)
     a50:	b2010073          	0xb2010073
     a54:	2508                	fld	fa0,8(a0)
     a56:	0000                	unimp
     a58:	2900                	fld	fs0,16(a0)
     a5a:	00f6                	slli	ra,ra,0x1d
     a5c:	0000                	unimp
     a5e:	099a                	slli	s3,s3,0x6
     a60:	0000                	unimp
     a62:	035a0127          	0x35a0127
     a66:	005a01f3          	0x5a01f3
     a6a:	2d00                	fld	fs0,24(a0)
     a6c:	052e                	slli	a0,a0,0xb
     a6e:	0000                	unimp
     a70:	a801                	j	a80 <_bss_end+0x2f4>
     a72:	f201                	bnez	a2,972 <_bss_end+0x1e6>
     a74:	0000                	unimp
     a76:	0200                	addi	s0,sp,256
     a78:	0000                	unimp
     a7a:	0100                	addi	s0,sp,128
     a7c:	2e9c                	fld	fa5,24(a3)
     a7e:	00a5                	addi	ra,ra,9
     a80:	0000                	unimp
     a82:	9801                	andi	s0,s0,-32
     a84:	2d01                	jal	1094 <_bss_end+0x908>
     a86:	0009                	c.nop	2
     a88:	8c00                	0x8c00
     a8a:	0000                	unimp
     a8c:	3a00                	fld	fs0,48(a2)
     a8e:	0000                	unimp
     a90:	0100                	addi	s0,sp,128
     a92:	bf9c                	fsd	fa5,56(a5)
     a94:	000a                	c.slli	zero,0x2
     a96:	2500                	fld	fs0,8(a0)
     a98:	0069                	c.nop	26
     a9a:	9a01                	andi	a2,a2,-32
     a9c:	00002507          	flw	fa0,0(zero) # 0 <__DYNAMIC>
     aa0:	d000                	sw	s0,32(s0)
     aa2:	0000                	unimp
     aa4:	2f00                	fld	fs0,24(a4)
     aa6:	0000015b          	0x15b
     aaa:	9b01                	andi	a4,a4,-32
     aac:	2d12                	fld	fs10,256(sp)
     aae:	0009                	c.nop	2
     ab0:	0600                	addi	s0,sp,768
     ab2:	0001                	nop
     ab4:	2800                	fld	fs0,16(s0)
     ab6:	00a2                	slli	ra,ra,0x8
     ab8:	0000                	unimp
     aba:	00000acb          	fnmsub.s	fs5,ft0,ft0,ft0,rne
     abe:	3000                	fld	fs0,32(s0)
     ac0:	0280                	addi	s0,sp,320
     ac2:	0000                	unimp
     ac4:	0280                	addi	s0,sp,320
     ac6:	0000                	unimp
     ac8:	30062607          	flw	fa2,768(a2) # 3d7fa <_stack_start+0x2d7fa>
     acc:	0281                	addi	t0,t0,0
     ace:	0000                	unimp
     ad0:	0281                	addi	t0,t0,0
     ad2:	0000                	unimp
     ad4:	00052507          	flw	fa0,0(a0) # 2990 <_min_stack+0x990>
     ad8:	0b49                	addi	s6,s6,18
     ada:	0000                	unimp
     adc:	0004                	0x4
     ade:	02ea                	slli	t0,t0,0x1a
     ae0:	0000                	unimp
     ae2:	0104                	addi	s1,sp,128
     ae4:	02d0                	addi	a2,sp,324
     ae6:	0000                	unimp
     ae8:	ee0c                	fsw	fa1,24(a2)
     aea:	0005                	c.nop	1
     aec:	6900                	flw	fs0,16(a0)
     aee:	0001                	nop
     af0:	0800                	addi	s0,sp,16
     af2:	0001                	nop
     af4:	ee00                	fsw	fs0,24(a2)
     af6:	0000                	unimp
     af8:	6600                	flw	fs0,8(a2)
     afa:	02000003          	lb	zero,32(zero) # 20 <__DYNAMIC+0x20>
     afe:	0504                	addi	s1,sp,640
     b00:	6e69                	lui	t3,0x1a
     b02:	0074                	addi	a3,sp,12
     b04:	0004c303          	lbu	t1,0(s1) # fffec000 <_stack_start+0xfffdc000>
     b08:	0200                	addi	s0,sp,256
     b0a:	17d8                	addi	a4,sp,996
     b0c:	0038                	addi	a4,sp,8
     b0e:	0000                	unimp
     b10:	0404                	addi	s1,sp,512
     b12:	00004a07          	flq	fs4,0(zero) # 0 <__DYNAMIC>
     b16:	0400                	addi	s0,sp,512
     b18:	0508                	addi	a0,sp,640
     b1a:	00000097          	auipc	ra,0x0
     b1e:	1004                	addi	s1,sp,32
     b20:	8c04                	0x8c04
     b22:	0002                	c.slli64	zero
     b24:	0500                	addi	s0,sp,640
     b26:	0251                	addi	tp,tp,20
     b28:	0000                	unimp
     b2a:	6502                	flw	fa0,0(sp)
     b2c:	1701                	addi	a4,a4,-32
     b2e:	0038                	addi	a4,sp,8
     b30:	0000                	unimp
     b32:	0104                	addi	s1,sp,128
     b34:	4e06                	lw	t3,64(sp)
     b36:	04000003          	lb	zero,64(zero) # 40 <__DYNAMIC+0x40>
     b3a:	0801                	addi	a6,a6,0
     b3c:	034c                	addi	a1,sp,388
     b3e:	0000                	unimp
     b40:	0204                	addi	s1,sp,256
     b42:	6805                	lui	a6,0x1
     b44:	04000003          	lb	zero,64(zero) # 40 <__DYNAMIC+0x40>
     b48:	0702                	c.slli64	a4
     b4a:	020e                	slli	tp,tp,0x3
     b4c:	0000                	unimp
     b4e:	0404                	addi	s1,sp,512
     b50:	9c05                	0x9c05
     b52:	0000                	unimp
     b54:	0400                	addi	s0,sp,512
     b56:	0704                	addi	s1,sp,896
     b58:	0045                	c.nop	17
     b5a:	0000                	unimp
     b5c:	0804                	addi	s1,sp,16
     b5e:	00004007          	flq	ft0,0(zero) # 0 <__DYNAMIC>
     b62:	0300                	addi	s0,sp,384
     b64:	0200                	addi	s0,sp,256
     b66:	0000                	unimp
     b68:	760e2e03          	lw	t3,1888(t3) # 1a760 <_stack_start+0xa760>
     b6c:	0000                	unimp
     b6e:	0300                	addi	s0,sp,384
     b70:	041e                	slli	s0,s0,0x7
     b72:	0000                	unimp
     b74:	760e7403          	0x760e7403
     b78:	0000                	unimp
     b7a:	0300                	addi	s0,sp,384
     b7c:	04c1                	addi	s1,s1,16
     b7e:	0000                	unimp
     b80:	25179303          	lh	t1,593(a5)
     b84:	0000                	unimp
     b86:	0600                	addi	s0,sp,768
     b88:	0304                	addi	s1,sp,384
     b8a:	03a5                	addi	t2,t2,9
     b8c:	00d1                	addi	ra,ra,20
     b8e:	0000                	unimp
     b90:	00024b07          	flq	fs6,0(tp) # fffe9000 <_stack_start+0xfffd9000>
     b94:	0300                	addi	s0,sp,384
     b96:	004d0ca7          	0x4d0ca7
     b9a:	0000                	unimp
     b9c:	0001e907          	0x1e907
     ba0:	0300                	addi	s0,sp,384
     ba2:	13a8                	addi	a0,sp,488
     ba4:	00d1                	addi	ra,ra,20
     ba6:	0000                	unimp
     ba8:	0800                	addi	s0,sp,16
     baa:	0061                	c.nop	24
     bac:	0000                	unimp
     bae:	00e1                	addi	ra,ra,24
     bb0:	0000                	unimp
     bb2:	3809                	jal	3c4 <__DTOR_END__+0x48>
     bb4:	0000                	unimp
     bb6:	0300                	addi	s0,sp,384
     bb8:	0a00                	addi	s0,sp,272
     bba:	0308                	addi	a0,sp,384
     bbc:	09a2                	slli	s3,s3,0x8
     bbe:	0105                	addi	sp,sp,1
     bc0:	0000                	unimp
     bc2:	0004080b          	0x4080b
     bc6:	0300                	addi	s0,sp,384
     bc8:	07a4                	addi	s1,sp,968
     bca:	0025                	c.nop	9
     bcc:	0000                	unimp
     bce:	0b00                	addi	s0,sp,400
     bd0:	0410                	addi	a2,sp,512
     bd2:	0000                	unimp
     bd4:	af05a903          	lw	s2,-1296(a1)
     bd8:	0000                	unimp
     bda:	0400                	addi	s0,sp,512
     bdc:	0300                	addi	s0,sp,384
     bde:	0390                	addi	a2,sp,448
     be0:	0000                	unimp
     be2:	e103aa03          	lw	s4,-496(t2) # fffffe10 <_stack_start+0xfffefe10>
     be6:	0000                	unimp
     be8:	0c00                	addi	s0,sp,528
     bea:	0304                	addi	s1,sp,384
     bec:	0460                	addi	s0,sp,524
     bee:	0000                	unimp
     bf0:	1604                	addi	s1,sp,800
     bf2:	7d19                	lui	s10,0xfffe6
     bf4:	0000                	unimp
     bf6:	0300                	addi	s0,sp,384
     bf8:	032e                	slli	t1,t1,0xb
     bfa:	0000                	unimp
     bfc:	0c05                	addi	s8,s8,1
     bfe:	250d                	jal	1220 <_bss_end+0xa94>
     c00:	0000                	unimp
     c02:	0300                	addi	s0,sp,384
     c04:	000001a7          	0x1a7
     c08:	2304                	fld	fs1,0(a4)
     c0a:	00011f1b          	0x11f1b
     c0e:	0d00                	addi	s0,sp,656
     c10:	01b8                	addi	a4,sp,200
     c12:	0000                	unimp
     c14:	0418                	addi	a4,sp,512
     c16:	0834                	addi	a3,sp,24
     c18:	0191                	addi	gp,gp,4
     c1a:	0000                	unimp
     c1c:	0003b10b          	0x3b10b
     c20:	0400                	addi	s0,sp,512
     c22:	1336                	slli	t1,t1,0x2d
     c24:	0191                	addi	gp,gp,4
     c26:	0000                	unimp
     c28:	0e00                	addi	s0,sp,784
     c2a:	6b5f 0400 0737      	0x73704006b5f
     c30:	0025                	c.nop	9
     c32:	0000                	unimp
     c34:	0b04                	addi	s1,sp,400
     c36:	03f9                	addi	t2,t2,30
     c38:	0000                	unimp
     c3a:	3704                	fld	fs1,40(a4)
     c3c:	0000250b          	0x250b
     c40:	0800                	addi	s0,sp,16
     c42:	0000140b          	0x140b
     c46:	0400                	addi	s0,sp,512
     c48:	00251437          	lui	s0,0x251
     c4c:	0000                	unimp
     c4e:	0b0c                	addi	a1,sp,400
     c50:	04ac                	addi	a1,sp,584
     c52:	0000                	unimp
     c54:	3704                	fld	fs1,40(a4)
     c56:	0000251b          	0x251b
     c5a:	1000                	addi	s0,sp,32
     c5c:	5f0e                	lw	t5,224(sp)
     c5e:	0078                	addi	a4,sp,12
     c60:	3804                	fld	fs1,48(s0)
     c62:	0001970b          	0x1970b
     c66:	1400                	addi	s0,sp,544
     c68:	0f00                	addi	s0,sp,912
     c6a:	3704                	fld	fs1,40(a4)
     c6c:	0001                	nop
     c6e:	0800                	addi	s0,sp,16
     c70:	00000113          	li	sp,0
     c74:	000001a7          	0x1a7
     c78:	3809                	jal	48a <__DTOR_END__+0x10e>
     c7a:	0000                	unimp
     c7c:	0000                	unimp
     c7e:	0d00                	addi	s0,sp,656
     c80:	01e4                	addi	s1,sp,204
     c82:	0000                	unimp
     c84:	0424                	addi	s1,sp,520
     c86:	083c                	addi	a5,sp,24
     c88:	022a                	slli	tp,tp,0xa
     c8a:	0000                	unimp
     c8c:	00008e0b          	0x8e0b
     c90:	0400                	addi	s0,sp,512
     c92:	093e                	slli	s2,s2,0xf
     c94:	0025                	c.nop	9
     c96:	0000                	unimp
     c98:	0b00                	addi	s0,sp,400
     c9a:	0000042b          	0x42b
     c9e:	3f04                	fld	fs1,56(a4)
     ca0:	2509                	jal	12a2 <_bss_end+0xb16>
     ca2:	0000                	unimp
     ca4:	0400                	addi	s0,sp,512
     ca6:	0000bd0b          	0xbd0b
     caa:	0400                	addi	s0,sp,512
     cac:	0940                	addi	s0,sp,148
     cae:	0025                	c.nop	9
     cb0:	0000                	unimp
     cb2:	0b08                	addi	a0,sp,400
     cb4:	00000543          	fmadd.s	fa0,ft0,ft0,ft0,rne
     cb8:	4104                	lw	s1,0(a0)
     cba:	2509                	jal	12bc <_bss_end+0xb30>
     cbc:	0000                	unimp
     cbe:	0c00                	addi	s0,sp,528
     cc0:	0002aa0b          	0x2aa0b
     cc4:	0400                	addi	s0,sp,512
     cc6:	0942                	slli	s2,s2,0x10
     cc8:	0025                	c.nop	9
     cca:	0000                	unimp
     ccc:	0b10                	addi	a2,sp,400
     cce:	026d                	addi	tp,tp,27
     cd0:	0000                	unimp
     cd2:	4304                	lw	s1,0(a4)
     cd4:	2509                	jal	12d6 <_bss_end+0xb4a>
     cd6:	0000                	unimp
     cd8:	1400                	addi	s0,sp,544
     cda:	0004b10b          	0x4b10b
     cde:	0400                	addi	s0,sp,512
     ce0:	0944                	addi	s1,sp,148
     ce2:	0025                	c.nop	9
     ce4:	0000                	unimp
     ce6:	0b18                	addi	a4,sp,400
     ce8:	0372                	slli	t1,t1,0x1c
     cea:	0000                	unimp
     cec:	4504                	lw	s1,8(a0)
     cee:	2509                	jal	12f0 <_bss_end+0xb64>
     cf0:	0000                	unimp
     cf2:	1c00                	addi	s0,sp,560
     cf4:	0004ec0b          	0x4ec0b
     cf8:	0400                	addi	s0,sp,512
     cfa:	0946                	slli	s2,s2,0x11
     cfc:	0025                	c.nop	9
     cfe:	0000                	unimp
     d00:	0020                	addi	s0,sp,8
     d02:	cc10                	sw	a2,24(s0)
     d04:	0000                	unimp
     d06:	0800                	addi	s0,sp,16
     d08:	0401                	addi	s0,s0,0
     d0a:	026f084f          	fnmadd.d	fa6,ft10,ft6,ft0,rne
     d0e:	0000                	unimp
     d10:	0001530b          	0x1530b
     d14:	0400                	addi	s0,sp,512
     d16:	0a50                	addi	a2,sp,276
     d18:	0000026f          	jal	tp,d18 <_bss_end+0x58c>
     d1c:	0b00                	addi	s0,sp,400
     d1e:	0000                	unimp
     d20:	0000                	unimp
     d22:	5104                	lw	s1,32(a0)
     d24:	6f09                	lui	t5,0x2
     d26:	0002                	c.slli64	zero
     d28:	8000                	0x8000
     d2a:	5211                	li	tp,-28
     d2c:	0004                	0x4
     d2e:	0400                	addi	s0,sp,512
     d30:	01130a53          	fadd.s	fs4,ft6,fa7,rne
     d34:	0000                	unimp
     d36:	0100                	addi	s0,sp,128
     d38:	f111                	bnez	a0,c3c <_bss_end+0x4b0>
     d3a:	0000                	unimp
     d3c:	0400                	addi	s0,sp,512
     d3e:	0a56                	slli	s4,s4,0x15
     d40:	00000113          	li	sp,0
     d44:	0104                	addi	s1,sp,128
     d46:	0800                	addi	s0,sp,16
     d48:	0111                	addi	sp,sp,4
     d4a:	0000                	unimp
     d4c:	027f                	0x27f
     d4e:	0000                	unimp
     d50:	3809                	jal	562 <__DTOR_END__+0x1e6>
     d52:	0000                	unimp
     d54:	1f00                	addi	s0,sp,944
     d56:	1000                	addi	s0,sp,32
     d58:	000002b3          	add	t0,zero,zero
     d5c:	0190                	addi	a2,sp,192
     d5e:	6204                	flw	fs1,0(a2)
     d60:	c208                	sw	a0,0(a2)
     d62:	0002                	c.slli64	zero
     d64:	0b00                	addi	s0,sp,400
     d66:	03b1                	addi	t2,t2,12
     d68:	0000                	unimp
     d6a:	6304                	flw	fs1,0(a4)
     d6c:	c212                	sw	tp,4(sp)
     d6e:	0002                	c.slli64	zero
     d70:	0000                	unimp
     d72:	0003c90b          	0x3c90b
     d76:	0400                	addi	s0,sp,512
     d78:	0664                	addi	s1,sp,780
     d7a:	0025                	c.nop	9
     d7c:	0000                	unimp
     d7e:	0b04                	addi	s1,sp,400
     d80:	0164                	addi	s1,sp,140
     d82:	0000                	unimp
     d84:	6604                	flw	fs1,8(a2)
     d86:	c809                	beqz	s0,d98 <_bss_end+0x60c>
     d88:	0002                	c.slli64	zero
     d8a:	0800                	addi	s0,sp,16
     d8c:	0000cc0b          	0xcc0b
     d90:	0400                	addi	s0,sp,512
     d92:	022a1e67          	0x22a1e67
     d96:	0000                	unimp
     d98:	0088                	addi	a0,sp,64
     d9a:	027f040f          	0x27f040f
     d9e:	0000                	unimp
     da0:	d808                	sw	a0,48(s0)
     da2:	0002                	c.slli64	zero
     da4:	d800                	sw	s0,48(s0)
     da6:	0002                	c.slli64	zero
     da8:	0900                	addi	s0,sp,144
     daa:	0038                	addi	a4,sp,8
     dac:	0000                	unimp
     dae:	001f 040f 02de      	0x2de040f001f
     db4:	0000                	unimp
     db6:	0d12                	slli	s10,s10,0x4
     db8:	037c                	addi	a5,sp,396
     dba:	0000                	unimp
     dbc:	0408                	addi	a0,sp,512
     dbe:	087a                	slli	a6,a6,0x1e
     dc0:	00000307          	0x307
     dc4:	0000b70b          	0xb70b
     dc8:	0400                	addi	s0,sp,512
     dca:	0307117b          	0x307117b
     dce:	0000                	unimp
     dd0:	0b00                	addi	s0,sp,400
     dd2:	0562                	slli	a0,a0,0x18
     dd4:	0000                	unimp
     dd6:	7c04                	flw	fs1,56(s0)
     dd8:	2506                	fld	fa0,64(sp)
     dda:	0000                	unimp
     ddc:	0400                	addi	s0,sp,512
     dde:	0f00                	addi	s0,sp,912
     de0:	6104                	flw	fs1,0(a0)
     de2:	0000                	unimp
     de4:	0d00                	addi	s0,sp,656
     de6:	0000039b          	0x39b
     dea:	0468                	addi	a0,sp,524
     dec:	08ba                	slli	a7,a7,0xe
     dee:	0450                	addi	a2,sp,516
     df0:	0000                	unimp
     df2:	5f0e                	lw	t5,224(sp)
     df4:	0070                	addi	a2,sp,12
     df6:	bb04                	fsd	fs1,48(a4)
     df8:	0712                	slli	a4,a4,0x4
     dfa:	00000003          	lb	zero,0(zero) # 0 <__DYNAMIC>
     dfe:	5f0e                	lw	t5,224(sp)
     e00:	0072                	c.slli	zero,0x1c
     e02:	bc04                	fsd	fs1,56(s0)
     e04:	00002507          	flw	fa0,0(zero) # 0 <__DYNAMIC>
     e08:	0400                	addi	s0,sp,512
     e0a:	5f0e                	lw	t5,224(sp)
     e0c:	bd040077          	0xbd040077
     e10:	00002507          	flw	fa0,0(zero) # 0 <__DYNAMIC>
     e14:	0800                	addi	s0,sp,16
     e16:	0000ea0b          	0xea0b
     e1a:	0400                	addi	s0,sp,512
     e1c:	09be                	slli	s3,s3,0xf
     e1e:	0068                	addi	a0,sp,12
     e20:	0000                	unimp
     e22:	0b0c                	addi	a1,sp,400
     e24:	04a6                	slli	s1,s1,0x9
     e26:	0000                	unimp
     e28:	bf04                	fsd	fs1,56(a4)
     e2a:	6809                	lui	a6,0x2
     e2c:	0000                	unimp
     e2e:	0e00                	addi	s0,sp,784
     e30:	5f0e                	lw	t5,224(sp)
     e32:	6662                	flw	fa2,24(sp)
     e34:	0400                	addi	s0,sp,512
     e36:	11c0                	addi	s0,sp,228
     e38:	02df 0000 0b10      	0xb10000002df
     e3e:	00000057          	0x57
     e42:	c104                	sw	s1,0(a0)
     e44:	00002507          	flw	fa0,0(zero) # 0 <__DYNAMIC>
     e48:	1800                	addi	s0,sp,48
     e4a:	0000da0b          	0xda0b
     e4e:	0400                	addi	s0,sp,512
     e50:	0ac8                	addi	a0,sp,340
     e52:	0111                	addi	sp,sp,4
     e54:	0000                	unimp
     e56:	0b1c                	addi	a5,sp,400
     e58:	01d4                	addi	a3,sp,196
     e5a:	0000                	unimp
     e5c:	ca04                	sw	s1,16(a2)
     e5e:	d41d                	beqz	s0,d8c <_bss_end+0x600>
     e60:	0005                	c.nop	1
     e62:	2000                	fld	fs0,0(s0)
     e64:	0002660b          	0x2660b
     e68:	0400                	addi	s0,sp,512
     e6a:	1dcc                	addi	a1,sp,756
     e6c:	05fe                	slli	a1,a1,0x1f
     e6e:	0000                	unimp
     e70:	0b24                	addi	s1,sp,408
     e72:	0418                	addi	a4,sp,512
     e74:	0000                	unimp
     e76:	cf04                	sw	s1,24(a4)
     e78:	220d                	jal	f9a <_bss_end+0x80e>
     e7a:	0006                	c.slli	zero,0x1
     e7c:	2800                	fld	fs0,16(s0)
     e7e:	0005060b          	0x5060b
     e82:	0400                	addi	s0,sp,512
     e84:	09d0                	addi	a2,sp,212
     e86:	063c                	addi	a5,sp,776
     e88:	0000                	unimp
     e8a:	0e2c                	addi	a1,sp,792
     e8c:	755f 0062 d304      	0xd3040062755f
     e92:	df11                	beqz	a4,dae <_bss_end+0x622>
     e94:	0002                	c.slli64	zero
     e96:	3000                	fld	fs0,32(s0)
     e98:	5f0e                	lw	t5,224(sp)
     e9a:	7075                	c.lui	zero,0xffffd
     e9c:	0400                	addi	s0,sp,512
     e9e:	12d4                	addi	a3,sp,356
     ea0:	00000307          	0x307
     ea4:	0e38                	addi	a4,sp,792
     ea6:	755f 0072 d504      	0xd5040072755f
     eac:	00002507          	flw	fa0,0(zero) # 0 <__DYNAMIC>
     eb0:	3c00                	fld	fs0,56(s0)
     eb2:	0000b10b          	0xb10b
     eb6:	0400                	addi	s0,sp,512
     eb8:	11d8                	addi	a4,sp,228
     eba:	0642                	slli	a2,a2,0x10
     ebc:	0000                	unimp
     ebe:	0b40                	addi	s0,sp,404
     ec0:	04de                	slli	s1,s1,0x17
     ec2:	0000                	unimp
     ec4:	d904                	sw	s1,48(a0)
     ec6:	5211                	li	tp,-28
     ec8:	0006                	c.slli	zero,0x1
     eca:	4300                	lw	s0,0(a4)
     ecc:	5f0e                	lw	t5,224(sp)
     ece:	626c                	flw	fa1,68(a2)
     ed0:	0400                	addi	s0,sp,512
     ed2:	11dc                	addi	a5,sp,228
     ed4:	02df 0000 0b44      	0xb44000002df
     eda:	0100                	addi	s0,sp,128
     edc:	0000                	unimp
     ede:	df04                	sw	s1,56(a4)
     ee0:	00002507          	flw	fa0,0(zero) # 0 <__DYNAMIC>
     ee4:	4c00                	lw	s0,24(s0)
     ee6:	00012c0b          	0x12c0b
     eea:	0400                	addi	s0,sp,512
     eec:	0ae0                	addi	s0,sp,348
     eee:	0000008b          	0x8b
     ef2:	0b50                	addi	a2,sp,404
     ef4:	001a                	c.slli	zero,0x6
     ef6:	0000                	unimp
     ef8:	e304                	fsw	fs1,0(a4)
     efa:	6e12                	flw	ft8,4(sp)
     efc:	0004                	0x4
     efe:	5400                	lw	s0,40(s0)
     f00:	0002580b          	0x2580b
     f04:	0400                	addi	s0,sp,512
     f06:	012b0ce7          	jalr	s9,18(s6)
     f0a:	0000                	unimp
     f0c:	0b58                	addi	a4,sp,404
     f0e:	000003a3          	sb	zero,7(zero) # 7 <__DYNAMIC+0x7>
     f12:	e904                	fsw	fs1,16(a0)
     f14:	050e                	slli	a0,a0,0x3
     f16:	0001                	nop
     f18:	5c00                	lw	s0,56(s0)
     f1a:	00025e0b          	0x25e0b
     f1e:	0400                	addi	s0,sp,512
     f20:	09ea                	slli	s3,s3,0x1a
     f22:	0025                	c.nop	9
     f24:	0000                	unimp
     f26:	0064                	addi	s1,sp,12
     f28:	0000a313          	slti	t1,ra,0
     f2c:	6e00                	flw	fs0,24(a2)
     f2e:	0004                	0x4
     f30:	1400                	addi	s0,sp,544
     f32:	046e                	slli	s0,s0,0x1b
     f34:	0000                	unimp
     f36:	1114                	addi	a3,sp,160
     f38:	0001                	nop
     f3a:	1400                	addi	s0,sp,544
     f3c:	05c2                	slli	a1,a1,0x10
     f3e:	0000                	unimp
     f40:	2514                	fld	fa3,8(a0)
     f42:	0000                	unimp
     f44:	0000                	unimp
     f46:	0479040f          	0x479040f
     f4a:	0000                	unimp
     f4c:	6e15                	lui	t3,0x5
     f4e:	0004                	0x4
     f50:	1600                	addi	s0,sp,800
     f52:	0401                	addi	s0,s0,0
     f54:	0000                	unimp
     f56:	0428                	addi	a0,sp,520
     f58:	6504                	flw	fs1,8(a0)
     f5a:	0802                	c.slli64	a6
     f5c:	05c2                	slli	a1,a1,0x10
     f5e:	0000                	unimp
     f60:	00036117          	auipc	sp,0x36
     f64:	0400                	addi	s0,sp,512
     f66:	25070267          	jalr	tp,592(a4) # 27a9e <_stack_start+0x17a9e>
     f6a:	0000                	unimp
     f6c:	0000                	unimp
     f6e:	0000f917          	auipc	s2,0xf
     f72:	0400                	addi	s0,sp,512
     f74:	026c                	addi	a1,sp,268
     f76:	0006ae0b          	0x6ae0b
     f7a:	0400                	addi	s0,sp,512
     f7c:	0001f017          	auipc	zero,0x1f
     f80:	0400                	addi	s0,sp,512
     f82:	026c                	addi	a1,sp,268
     f84:	ae14                	fsd	fa3,24(a2)
     f86:	0006                	c.slli	zero,0x1
     f88:	0800                	addi	s0,sp,16
     f8a:	0001b017          	auipc	zero,0x1b
     f8e:	0400                	addi	s0,sp,512
     f90:	026c                	addi	a1,sp,268
     f92:	ae1e                	fsd	ft7,280(sp)
     f94:	0006                	c.slli	zero,0x1
     f96:	0c00                	addi	s0,sp,528
     f98:	0003c417          	auipc	s0,0x3c
     f9c:	0400                	addi	s0,sp,512
     f9e:	026e                	slli	tp,tp,0x1b
     fa0:	2508                	fld	fa0,8(a0)
     fa2:	0000                	unimp
     fa4:	1000                	addi	s0,sp,32
     fa6:	00043417          	auipc	s0,0x43
     faa:	0400                	addi	s0,sp,512
     fac:	ae08026f          	jal	tp,fff8128c <_stack_start+0xfff7128c>
     fb0:	0008                	0x8
     fb2:	1400                	addi	s0,sp,544
     fb4:	0003e017          	auipc	zero,0x3e
     fb8:	0400                	addi	s0,sp,512
     fba:	0272                	slli	tp,tp,0x1c
     fbc:	00002507          	flw	fa0,0(zero) # 0 <__DYNAMIC>
     fc0:	3000                	fld	fs0,32(s0)
     fc2:	0003ce17          	auipc	t3,0x3c
     fc6:	0400                	addi	s0,sp,512
     fc8:	c3160273          	0xc3160273
     fcc:	0008                	0x8
     fce:	3400                	fld	fs0,40(s0)
     fd0:	0002c517          	auipc	a0,0x2c
     fd4:	0400                	addi	s0,sp,512
     fd6:	0275                	addi	tp,tp,29
     fd8:	00002507          	flw	fa0,0(zero) # 0 <__DYNAMIC>
     fdc:	3800                	fld	fs0,48(s0)
     fde:	0003d617          	auipc	a2,0x3d
     fe2:	0400                	addi	s0,sp,512
     fe4:	d40a0277          	0xd40a0277
     fe8:	0008                	0x8
     fea:	3c00                	fld	fs0,56(s0)
     fec:	00024317          	auipc	t1,0x24
     ff0:	0400                	addi	s0,sp,512
     ff2:	027a                	slli	tp,tp,0x1e
     ff4:	00019113          	slli	sp,gp,0x0
     ff8:	4000                	lw	s0,0(s0)
     ffa:	0001da17          	auipc	s4,0x1d
     ffe:	0400                	addi	s0,sp,512
    1000:	2507027b          	0x2507027b
    1004:	0000                	unimp
    1006:	4400                	lw	s0,8(s0)
    1008:	00052017          	auipc	zero,0x52
    100c:	0400                	addi	s0,sp,512
    100e:	027c                	addi	a5,sp,268
    1010:	00019113          	slli	sp,gp,0x0
    1014:	4800                	lw	s0,16(s0)
    1016:	00032417          	auipc	s0,0x32
    101a:	0400                	addi	s0,sp,512
    101c:	027d                	addi	tp,tp,31
    101e:	da14                	sw	a3,48(a2)
    1020:	0008                	0x8
    1022:	4c00                	lw	s0,24(s0)
    1024:	0001f817          	auipc	a6,0x1f
    1028:	0400                	addi	s0,sp,512
    102a:	0280                	addi	s0,sp,320
    102c:	00002507          	flw	fa0,0(zero) # 0 <__DYNAMIC>
    1030:	5000                	lw	s0,32(s0)
    1032:	00012417          	auipc	s0,0x12
    1036:	0400                	addi	s0,sp,512
    1038:	0281                	addi	t0,t0,0
    103a:	c209                	beqz	a2,103c <_bss_end+0x8b0>
    103c:	0005                	c.nop	1
    103e:	5400                	lw	s0,40(s0)
    1040:	00035a17          	auipc	s4,0x35
    1044:	0400                	addi	s0,sp,512
    1046:	02a4                	addi	s1,sp,328
    1048:	00088907          	0x88907
    104c:	5800                	lw	s0,48(s0)
    104e:	b318                	fsd	fa4,32(a4)
    1050:	0002                	c.slli64	zero
    1052:	0400                	addi	s0,sp,512
    1054:	02a8                	addi	a0,sp,328
    1056:	0002c213          	xori	tp,t0,0
    105a:	4800                	lw	s0,16(s0)
    105c:	1801                	addi	a6,a6,-32
    105e:	0221                	addi	tp,tp,8
    1060:	0000                	unimp
    1062:	a904                	fsd	fs1,16(a0)
    1064:	1202                	slli	tp,tp,0x20
    1066:	027f                	0x27f
    1068:	0000                	unimp
    106a:	014c                	addi	a1,sp,132
    106c:	d418                	sw	a4,40(s0)
    106e:	0004                	0x4
    1070:	0400                	addi	s0,sp,512
    1072:	02ad                	addi	t0,t0,11
    1074:	eb0c                	fsw	fa1,16(a4)
    1076:	0008                	0x8
    1078:	dc00                	sw	s0,56(s0)
    107a:	1802                	slli	a6,a6,0x20
    107c:	00e2                	slli	ra,ra,0x18
    107e:	0000                	unimp
    1080:	b204                	fsd	fs1,32(a2)
    1082:	1002                	c.slli	zero,0x20
    1084:	0000066f          	jal	a2,1084 <_bss_end+0x8f8>
    1088:	02e0                	addi	s0,sp,332
    108a:	c718                	sw	a4,8(a4)
    108c:	0000                	unimp
    108e:	0400                	addi	s0,sp,512
    1090:	02b4                	addi	a3,sp,328
    1092:	f70a                	fsw	ft2,172(sp)
    1094:	0008                	0x8
    1096:	ec00                	fsw	fs0,24(s0)
    1098:	0002                	c.slli64	zero
    109a:	05c8040f          	0x5c8040f
    109e:	0000                	unimp
    10a0:	0104                	addi	s1,sp,128
    10a2:	5508                	lw	a0,40(a0)
    10a4:	15000003          	lb	zero,336(zero) # 150 <check_heap_beebs+0xe>
    10a8:	05c8                	addi	a0,sp,708
    10aa:	0000                	unimp
    10ac:	0450040f          	0x450040f
    10b0:	0000                	unimp
    10b2:	0000a313          	slti	t1,ra,0
    10b6:	f800                	fsw	fs0,48(s0)
    10b8:	0005                	c.nop	1
    10ba:	1400                	addi	s0,sp,544
    10bc:	046e                	slli	s0,s0,0x1b
    10be:	0000                	unimp
    10c0:	1114                	addi	a3,sp,160
    10c2:	0001                	nop
    10c4:	1400                	addi	s0,sp,544
    10c6:	05f8                	addi	a4,sp,716
    10c8:	0000                	unimp
    10ca:	2514                	fld	fa3,8(a0)
    10cc:	0000                	unimp
    10ce:	0000                	unimp
    10d0:	05cf040f          	0x5cf040f
    10d4:	0000                	unimp
    10d6:	05da040f          	0x5da040f
    10da:	0000                	unimp
    10dc:	00009713          	slli	a4,ra,0x0
    10e0:	2200                	fld	fs0,0(a2)
    10e2:	0006                	c.slli	zero,0x1
    10e4:	1400                	addi	s0,sp,544
    10e6:	046e                	slli	s0,s0,0x1b
    10e8:	0000                	unimp
    10ea:	1114                	addi	a3,sp,160
    10ec:	0001                	nop
    10ee:	1400                	addi	s0,sp,544
    10f0:	00000097          	auipc	ra,0x0
    10f4:	2514                	fld	fa3,8(a0)
    10f6:	0000                	unimp
    10f8:	0000                	unimp
    10fa:	0604040f          	0x604040f
    10fe:	0000                	unimp
    1100:	00002513          	slti	a0,zero,0
    1104:	3c00                	fld	fs0,56(s0)
    1106:	0006                	c.slli	zero,0x1
    1108:	1400                	addi	s0,sp,544
    110a:	046e                	slli	s0,s0,0x1b
    110c:	0000                	unimp
    110e:	1114                	addi	a3,sp,160
    1110:	0001                	nop
    1112:	0000                	unimp
    1114:	0628040f          	0x628040f
    1118:	0000                	unimp
    111a:	6108                	flw	fa0,0(a0)
    111c:	0000                	unimp
    111e:	5200                	lw	s0,32(a2)
    1120:	0006                	c.slli	zero,0x1
    1122:	0900                	addi	s0,sp,144
    1124:	0038                	addi	a4,sp,8
    1126:	0000                	unimp
    1128:	0002                	c.slli64	zero
    112a:	6108                	flw	fa0,0(a0)
    112c:	0000                	unimp
    112e:	6200                	flw	fs0,0(a2)
    1130:	0006                	c.slli	zero,0x1
    1132:	0900                	addi	s0,sp,144
    1134:	0038                	addi	a4,sp,8
    1136:	0000                	unimp
    1138:	0000                	unimp
    113a:	8905                	andi	a0,a0,1
    113c:	04000003          	lb	zero,64(zero) # 40 <__DYNAMIC+0x40>
    1140:	0124                	addi	s1,sp,136
    1142:	0d1a                	slli	s10,s10,0x6
    1144:	19000003          	lb	zero,400(zero) # 190 <calloc_beebs+0x8>
    1148:	000004bb          	0x4bb
    114c:	040c                	addi	a1,sp,512
    114e:	0128                	addi	a0,sp,136
    1150:	a808                	fsd	fa0,16(s0)
    1152:	0006                	c.slli	zero,0x1
    1154:	1700                	addi	s0,sp,928
    1156:	03b1                	addi	t2,t2,12
    1158:	0000                	unimp
    115a:	2a04                	fld	fs1,16(a2)
    115c:	1101                	addi	sp,sp,-32
    115e:	06a8                	addi	a0,sp,840
    1160:	0000                	unimp
    1162:	1700                	addi	s0,sp,928
    1164:	00000207          	0x207
    1168:	2b04                	fld	fs1,16(a4)
    116a:	0701                	addi	a4,a4,0
    116c:	0025                	c.nop	9
    116e:	0000                	unimp
    1170:	1704                	addi	s1,sp,928
    1172:	00000383          	lb	t2,0(zero) # 0 <__DYNAMIC>
    1176:	2c04                	fld	fs1,24(s0)
    1178:	0b01                	addi	s6,s6,0
    117a:	06ae                	slli	a3,a3,0xb
    117c:	0000                	unimp
    117e:	0008                	0x8
    1180:	066f040f          	0x66f040f
    1184:	0000                	unimp
    1186:	0662040f          	0x662040f
    118a:	0000                	unimp
    118c:	0c19                	addi	s8,s8,6
    118e:	0000                	unimp
    1190:	0e00                	addi	s0,sp,784
    1192:	4404                	lw	s1,8(s0)
    1194:	0801                	addi	a6,a6,0
    1196:	06ed                	addi	a3,a3,27
    1198:	0000                	unimp
    119a:	0005ac17          	auipc	s8,0x5a
    119e:	0400                	addi	s0,sp,512
    11a0:	0145                	addi	sp,sp,17
    11a2:	ed12                	fsw	ft4,152(sp)
    11a4:	0006                	c.slli	zero,0x1
    11a6:	0000                	unimp
    11a8:	00043f17          	auipc	t5,0x43
    11ac:	0400                	addi	s0,sp,512
    11ae:	0146                	slli	sp,sp,0x11
    11b0:	ed12                	fsw	ft4,152(sp)
    11b2:	0006                	c.slli	zero,0x1
    11b4:	0600                	addi	s0,sp,768
    11b6:	00045b17          	auipc	s6,0x45
    11ba:	0400                	addi	s0,sp,512
    11bc:	6f120147          	fmsub.q	ft2,ft4,fa7,fa3,rne
    11c0:	0000                	unimp
    11c2:	0c00                	addi	s0,sp,528
    11c4:	0800                	addi	s0,sp,16
    11c6:	0000006f          	j	11c6 <_bss_end+0xa3a>
    11ca:	06fd                	addi	a3,a3,31
    11cc:	0000                	unimp
    11ce:	3809                	jal	9e0 <_bss_end+0x254>
    11d0:	0000                	unimp
    11d2:	0200                	addi	s0,sp,256
    11d4:	1a00                	addi	s0,sp,304
    11d6:	04d0                	addi	a2,sp,580
    11d8:	0285                	addi	t0,t0,1
    11da:	00081207          	0x81207
    11de:	1700                	addi	s0,sp,928
    11e0:	0488                	addi	a0,sp,576
    11e2:	0000                	unimp
    11e4:	8704                	0x8704
    11e6:	1802                	slli	a6,a6,0x20
    11e8:	0038                	addi	a4,sp,8
    11ea:	0000                	unimp
    11ec:	1700                	addi	s0,sp,928
    11ee:	0445                	addi	s0,s0,17
    11f0:	0000                	unimp
    11f2:	8804                	0x8804
    11f4:	1202                	slli	tp,tp,0x20
    11f6:	05c2                	slli	a1,a1,0x10
    11f8:	0000                	unimp
    11fa:	1704                	addi	s1,sp,928
    11fc:	0236                	slli	tp,tp,0xd
    11fe:	0000                	unimp
    1200:	8904                	0x8904
    1202:	1002                	c.slli	zero,0x20
    1204:	0812                	slli	a6,a6,0x4
    1206:	0000                	unimp
    1208:	1708                	addi	a0,sp,928
    120a:	000004f7          	0x4f7
    120e:	8a04                	0x8a04
    1210:	1702                	slli	a4,a4,0x20
    1212:	000001a7          	0x1a7
    1216:	1724                	addi	s1,sp,936
    1218:	01c0                	addi	s0,sp,196
    121a:	0000                	unimp
    121c:	8b04                	0x8b04
    121e:	0f02                	c.slli64	t5
    1220:	0025                	c.nop	9
    1222:	0000                	unimp
    1224:	1748                	addi	a0,sp,932
    1226:	03ac                	addi	a1,sp,456
    1228:	0000                	unimp
    122a:	8c04                	0x8c04
    122c:	2c02                	fld	fs8,0(sp)
    122e:	0084                	addi	s1,sp,64
    1230:	0000                	unimp
    1232:	1750                	addi	a2,sp,932
    1234:	050d                	addi	a0,a0,3
    1236:	0000                	unimp
    1238:	8d04                	0x8d04
    123a:	1a02                	slli	s4,s4,0x20
    123c:	06b4                	addi	a3,sp,840
    123e:	0000                	unimp
    1240:	1758                	addi	a4,sp,932
    1242:	000003b7          	lui	t2,0x0
    1246:	8e04                	0x8e04
    1248:	1602                	slli	a2,a2,0x20
    124a:	0105                	addi	sp,sp,1
    124c:	0000                	unimp
    124e:	1768                	addi	a0,sp,940
    1250:	0512                	slli	a0,a0,0x4
    1252:	0000                	unimp
    1254:	8f04                	0x8f04
    1256:	1602                	slli	a2,a2,0x20
    1258:	0105                	addi	sp,sp,1
    125a:	0000                	unimp
    125c:	1770                	addi	a2,sp,940
    125e:	0080                	addi	s0,sp,64
    1260:	0000                	unimp
    1262:	9004                	0x9004
    1264:	1602                	slli	a2,a2,0x20
    1266:	0105                	addi	sp,sp,1
    1268:	0000                	unimp
    126a:	1778                	addi	a4,sp,940
    126c:	04ca                	slli	s1,s1,0x12
    126e:	0000                	unimp
    1270:	9104                	0x9104
    1272:	1002                	c.slli	zero,0x20
    1274:	0822                	slli	a6,a6,0x8
    1276:	0000                	unimp
    1278:	1780                	addi	s0,sp,992
    127a:	022a                	slli	tp,tp,0xa
    127c:	0000                	unimp
    127e:	9204                	0x9204
    1280:	1002                	c.slli	zero,0x20
    1282:	0832                	slli	a6,a6,0xc
    1284:	0000                	unimp
    1286:	1788                	addi	a0,sp,992
    1288:	0468                	addi	a0,sp,524
    128a:	0000                	unimp
    128c:	9304                	0x9304
    128e:	0f02                	c.slli64	t5
    1290:	0025                	c.nop	9
    1292:	0000                	unimp
    1294:	17a0                	addi	s0,sp,1000
    1296:	0145                	addi	sp,sp,17
    1298:	0000                	unimp
    129a:	9404                	0x9404
    129c:	1602                	slli	a2,a2,0x20
    129e:	0105                	addi	sp,sp,1
    12a0:	0000                	unimp
    12a2:	17a4                	addi	s1,sp,1000
    12a4:	0000006b          	0x6b
    12a8:	9504                	0x9504
    12aa:	1602                	slli	a2,a2,0x20
    12ac:	0105                	addi	sp,sp,1
    12ae:	0000                	unimp
    12b0:	17ac                	addi	a1,sp,1000
    12b2:	0134                	addi	a3,sp,136
    12b4:	0000                	unimp
    12b6:	9604                	0x9604
    12b8:	1602                	slli	a2,a2,0x20
    12ba:	0105                	addi	sp,sp,1
    12bc:	0000                	unimp
    12be:	17b4                	addi	a3,sp,1000
    12c0:	0020                	addi	s0,sp,8
    12c2:	0000                	unimp
    12c4:	9704                	0x9704
    12c6:	1602                	slli	a2,a2,0x20
    12c8:	0105                	addi	sp,sp,1
    12ca:	0000                	unimp
    12cc:	17bc                	addi	a5,sp,1000
    12ce:	0000002f          	0x2f
    12d2:	9804                	0x9804
    12d4:	1602                	slli	a2,a2,0x20
    12d6:	0105                	addi	sp,sp,1
    12d8:	0000                	unimp
    12da:	17c4                	addi	s1,sp,996
    12dc:	035f 0000 9904      	0x99040000035f
    12e2:	0802                	c.slli64	a6
    12e4:	0025                	c.nop	9
    12e6:	0000                	unimp
    12e8:	00cc                	addi	a1,sp,68
    12ea:	c808                	sw	a0,16(s0)
    12ec:	0005                	c.nop	1
    12ee:	2200                	fld	fs0,0(a2)
    12f0:	0008                	0x8
    12f2:	0900                	addi	s0,sp,144
    12f4:	0038                	addi	a4,sp,8
    12f6:	0000                	unimp
    12f8:	0019                	c.nop	6
    12fa:	c808                	sw	a0,16(s0)
    12fc:	0005                	c.nop	1
    12fe:	3200                	fld	fs0,32(a2)
    1300:	0008                	0x8
    1302:	0900                	addi	s0,sp,144
    1304:	0038                	addi	a4,sp,8
    1306:	0000                	unimp
    1308:	c8080007          	0xc8080007
    130c:	0005                	c.nop	1
    130e:	4200                	lw	s0,0(a2)
    1310:	0008                	0x8
    1312:	0900                	addi	s0,sp,144
    1314:	0038                	addi	a4,sp,8
    1316:	0000                	unimp
    1318:	f01a0017          	auipc	zero,0xf01a0
    131c:	9e04                	0x9e04
    131e:	0702                	c.slli64	a4
    1320:	0869                	addi	a6,a6,26
    1322:	0000                	unimp
    1324:	00029817          	auipc	a6,0x29
    1328:	0400                	addi	s0,sp,512
    132a:	02a1                	addi	t0,t0,8
    132c:	0008691b          	0x8691b
    1330:	0000                	unimp
    1332:	00027717          	auipc	a4,0x27
    1336:	0400                	addi	s0,sp,512
    1338:	02a2                	slli	t0,t0,0x8
    133a:	7918                	flw	fa4,48(a0)
    133c:	0008                	0x8
    133e:	7800                	flw	fs0,48(s0)
    1340:	0800                	addi	s0,sp,16
    1342:	00000307          	0x307
    1346:	0879                	addi	a6,a6,30
    1348:	0000                	unimp
    134a:	3809                	jal	b5c <_bss_end+0x3d0>
    134c:	0000                	unimp
    134e:	1d00                	addi	s0,sp,688
    1350:	0800                	addi	s0,sp,16
    1352:	0038                	addi	a4,sp,8
    1354:	0000                	unimp
    1356:	0889                	addi	a7,a7,2
    1358:	0000                	unimp
    135a:	3809                	jal	b6c <_bss_end+0x3e0>
    135c:	0000                	unimp
    135e:	1d00                	addi	s0,sp,688
    1360:	1b00                	addi	s0,sp,432
    1362:	04f0                	addi	a2,sp,588
    1364:	ae030283          	lb	t0,-1312(t1) # 24acc <_stack_start+0x14acc>
    1368:	0008                	0x8
    136a:	1c00                	addi	s0,sp,560
    136c:	0401                	addi	s0,s0,0
    136e:	0000                	unimp
    1370:	9a04                	0x9a04
    1372:	0b02                	c.slli64	s6
    1374:	06fd                	addi	a3,a3,31
    1376:	0000                	unimp
    1378:	e41c                	fsw	fa5,8(s0)
    137a:	0004                	0x4
    137c:	0400                	addi	s0,sp,512
    137e:	420b02a3          	sb	zero,1061(s6) # 465db <_stack_start+0x365db>
    1382:	0008                	0x8
    1384:	0000                	unimp
    1386:	c808                	sw	a0,16(s0)
    1388:	0005                	c.nop	1
    138a:	be00                	fsd	fs0,56(a2)
    138c:	0008                	0x8
    138e:	0900                	addi	s0,sp,144
    1390:	0038                	addi	a4,sp,8
    1392:	0000                	unimp
    1394:	0018                	0x18
    1396:	601d                	c.lui	zero,0x7
    1398:	0000                	unimp
    139a:	0f00                	addi	s0,sp,912
    139c:	be04                	fsd	fs1,56(a2)
    139e:	0008                	0x8
    13a0:	1e00                	addi	s0,sp,816
    13a2:	08d4                	addi	a3,sp,84
    13a4:	0000                	unimp
    13a6:	6e14                	flw	fa3,24(a2)
    13a8:	0004                	0x4
    13aa:	0000                	unimp
    13ac:	08c9040f          	0x8c9040f
    13b0:	0000                	unimp
    13b2:	0191040f          	0x191040f
    13b6:	0000                	unimp
    13b8:	eb1e                	fsw	ft7,148(sp)
    13ba:	0008                	0x8
    13bc:	1400                	addi	s0,sp,544
    13be:	0025                	c.nop	9
    13c0:	0000                	unimp
    13c2:	0f00                	addi	s0,sp,912
    13c4:	f104                	fsw	fs1,32(a0)
    13c6:	0008                	0x8
    13c8:	0f00                	addi	s0,sp,912
    13ca:	e004                	fsw	fs1,0(s0)
    13cc:	0008                	0x8
    13ce:	0800                	addi	s0,sp,16
    13d0:	0662                	slli	a2,a2,0x18
    13d2:	0000                	unimp
    13d4:	00000907          	0x907
    13d8:	3809                	jal	bea <_bss_end+0x45e>
    13da:	0000                	unimp
    13dc:	0200                	addi	s0,sp,256
    13de:	1f00                	addi	s0,sp,944
    13e0:	047c                	addi	a5,sp,524
    13e2:	0000                	unimp
    13e4:	3304                	fld	fs1,32(a4)
    13e6:	046e1703          	lh	a4,70(t3) # 3d008 <_stack_start+0x2d008>
    13ea:	0000                	unimp
    13ec:	751f 0004 0400      	0x4000004751f
    13f2:	0334                	addi	a3,sp,392
    13f4:	741d                	lui	s0,0xfffe7
    13f6:	0004                	0x4
    13f8:	2000                	fld	fs0,0(s0)
    13fa:	05ad                	addi	a1,a1,11
    13fc:	0000                	unimp
    13fe:	1701                	addi	a4,a4,-32
    1400:	7611                	lui	a2,0xfffe4
    1402:	0000                	unimp
    1404:	0500                	addi	s0,sp,640
    1406:	00078803          	lb	a6,0(a5)
    140a:	2000                	fld	fs0,0(s0)
    140c:	05a0                	addi	s0,sp,712
    140e:	0000                	unimp
    1410:	1b01                	addi	s6,s6,-32
    1412:	110e                	slli	sp,sp,0x23
    1414:	0001                	nop
    1416:	0500                	addi	s0,sp,640
    1418:	00078403          	lb	s0,0(a5)
    141c:	2000                	fld	fs0,0(s0)
    141e:	05da                	slli	a1,a1,0x16
    1420:	0000                	unimp
    1422:	1c01                	addi	s8,s8,-32
    1424:	110e                	slli	sp,sp,0x23
    1426:	0001                	nop
    1428:	0500                	addi	s0,sp,640
    142a:	00078003          	lb	zero,0(a5)
    142e:	2000                	fld	fs0,0(s0)
    1430:	0591                	addi	a1,a1,4
    1432:	0000                	unimp
    1434:	1d01                	addi	s10,s10,-32
    1436:	00002c0f          	0x2c0f
    143a:	0500                	addi	s0,sp,640
    143c:	00077c03          	0x77c03
    1440:	2100                	fld	fs0,0(a0)
    1442:	000005e3          	beqz	zero,1c4c <_bss_end+0x14c0>
    1446:	a701                	j	1b46 <_bss_end+0x13ba>
    1448:	f401                	bnez	s0,1350 <_bss_end+0xbc4>
    144a:	0001                	nop
    144c:	0200                	addi	s0,sp,256
    144e:	0000                	unimp
    1450:	0100                	addi	s0,sp,128
    1452:	8e9c                	0x8e9c
    1454:	0009                	c.nop	2
    1456:	2200                	fld	fs0,0(a2)
    1458:	7470                	flw	fa2,108(s0)
    145a:	0072                	c.slli	zero,0x1c
    145c:	a701                	j	1b5c <_bss_end+0x13d0>
    145e:	00011113          	slli	sp,sp,0x0
    1462:	0100                	addi	s0,sp,128
    1464:	005a                	c.slli	zero,0x16
    1466:	0005b223          	0x5b223
    146a:	0100                	addi	s0,sp,128
    146c:	0184                	addi	s1,sp,192
    146e:	0111                	addi	sp,sp,4
    1470:	0000                	unimp
    1472:	01ac                	addi	a1,sp,200
    1474:	0000                	unimp
    1476:	0048                	addi	a0,sp,4
    1478:	0000                	unimp
    147a:	9c01                	0x9c01
    147c:	000009ef          	jal	s3,147c <_bss_end+0xcf0>
    1480:	7024                	flw	fs1,96(s0)
    1482:	7274                	flw	fa3,100(a2)
    1484:	0100                	addi	s0,sp,128
    1486:	1684                	addi	s1,sp,864
    1488:	0111                	addi	sp,sp,4
    148a:	0000                	unimp
    148c:	0000013f 00056325 	0x563250000013f
    1494:	0100                	addi	s0,sp,128
    1496:	2284                	fld	fs1,0(a3)
    1498:	002c                	addi	a1,sp,8
    149a:	0000                	unimp
    149c:	5b01                	li	s6,-32
    149e:	6826                	flw	fa6,72(sp)
    14a0:	0005                	c.nop	1
    14a2:	0100                	addi	s0,sp,128
    14a4:	0986                	slli	s3,s3,0x1
    14a6:	0111                	addi	sp,sp,4
    14a8:	0000                	unimp
    14aa:	0000016b          	0x16b
    14ae:	0001d427          	0x1d427
    14b2:	1800                	addi	s0,sp,48
    14b4:	0000                	unimp
    14b6:	2800                	fld	fs0,16(s0)
    14b8:	0069                	c.nop	26
    14ba:	9701                	srai	a4,a4,0x20
    14bc:	00002c0b          	0x2c0b
    14c0:	9800                	0x9800
    14c2:	0001                	nop
    14c4:	0000                	unimp
    14c6:	2300                	fld	fs0,0(a4)
    14c8:	05c0                	addi	s0,sp,708
    14ca:	0000                	unimp
    14cc:	7001                	c.lui	zero,0xfffe0
    14ce:	1101                	addi	sp,sp,-32
    14d0:	0001                	nop
    14d2:	8800                	0x8800
    14d4:	0001                	nop
    14d6:	2400                	fld	fs0,8(s0)
    14d8:	0000                	unimp
    14da:	0100                	addi	s0,sp,128
    14dc:	6b9c                	flw	fa5,16(a5)
    14de:	000a                	c.slli	zero,0x2
    14e0:	2900                	fld	fs0,16(a0)
    14e2:	05fc                	addi	a5,sp,716
    14e4:	0000                	unimp
    14e6:	7001                	c.lui	zero,0xfffe0
    14e8:	2c16                	fld	fs8,320(sp)
    14ea:	0000                	unimp
    14ec:	ab00                	fsd	fs0,16(a4)
    14ee:	0001                	nop
    14f0:	2900                	fld	fs0,16(a0)
    14f2:	00000563          	beqz	zero,14fc <_bss_end+0xd70>
    14f6:	7001                	c.lui	zero,0xfffe0
    14f8:	2c24                	fld	fs1,88(s0)
    14fa:	0000                	unimp
    14fc:	cc00                	sw	s0,24(s0)
    14fe:	0001                	nop
    1500:	2600                	fld	fs0,8(a2)
    1502:	0568                	addi	a0,sp,652
    1504:	0000                	unimp
    1506:	7201                	lui	tp,0xfffe0
    1508:	1109                	addi	sp,sp,-30
    150a:	0001                	nop
    150c:	ed00                	fsw	fs0,24(a0)
    150e:	0001                	nop
    1510:	2a00                	fld	fs0,16(a2)
    1512:	0198                	addi	a4,sp,192
    1514:	0000                	unimp
    1516:	00000a6b          	0xa6b
    151a:	0a4e                	slli	s4,s4,0x13
    151c:	0000                	unimp
    151e:	035a012b          	0x35a012b
    1522:	6c91                	lui	s9,0x4
    1524:	0006                	c.slli	zero,0x1
    1526:	a22c                	fsd	fa1,64(a2)
    1528:	0001                	nop
    152a:	4100                	lw	s0,0(a0)
    152c:	2b00000b          	0x2b00000b
    1530:	5a01                	li	s4,-32
    1532:	7802                	flw	fa6,32(sp)
    1534:	2b00                	fld	fs0,16(a4)
    1536:	5b01                	li	s6,-32
    1538:	3001                	jal	d38 <_bss_end+0x5ac>
    153a:	035c012b          	0x35c012b
    153e:	6c91                	lui	s9,0x4
    1540:	0006                	c.slli	zero,0x1
    1542:	2300                	fld	fs0,0(a4)
    1544:	05cd                	addi	a1,a1,19
    1546:	0000                	unimp
    1548:	5b01                	li	s6,-32
    154a:	1101                	addi	sp,sp,-32
    154c:	0001                	nop
    154e:	5a00                	lw	s0,48(a2)
    1550:	0001                	nop
    1552:	2e00                	fld	fs0,24(a2)
    1554:	0000                	unimp
    1556:	0100                	addi	s0,sp,128
    1558:	a69c                	fsd	fa5,8(a3)
    155a:	000a                	c.slli	zero,0x2
    155c:	2900                	fld	fs0,16(a0)
    155e:	00000563          	beqz	zero,1568 <_bss_end+0xddc>
    1562:	5b01                	li	s6,-32
    1564:	2c16                	fld	fs8,320(sp)
    1566:	0000                	unimp
    1568:	0b00                	addi	s0,sp,400
    156a:	0002                	c.slli64	zero
    156c:	2600                	fld	fs0,8(a2)
    156e:	0568                	addi	a0,sp,652
    1570:	0000                	unimp
    1572:	5d01                	li	s10,-32
    1574:	1109                	addi	sp,sp,-30
    1576:	0001                	nop
    1578:	3700                	fld	fs0,40(a4)
    157a:	0002                	c.slli64	zero
    157c:	0000                	unimp
    157e:	00057023          	0x57023
    1582:	0100                	addi	s0,sp,128
    1584:	0025014b          	fnmsub.s	ft2,fa0,ft2,ft0,rne
    1588:	0000                	unimp
    158a:	0142                	slli	sp,sp,0x10
    158c:	0000                	unimp
    158e:	0018                	0x18
    1590:	0000                	unimp
    1592:	9c01                	0x9c01
    1594:	0ad1                	addi	s5,s5,20
    1596:	0000                	unimp
    1598:	f729                	bnez	a4,14e2 <_bss_end+0xd56>
    159a:	0005                	c.nop	1
    159c:	0100                	addi	s0,sp,128
    159e:	0111194b          	fnmsub.s	fs2,ft2,fa7,ft0,rtz
    15a2:	0000                	unimp
    15a4:	0264                	addi	s1,sp,268
    15a6:	0000                	unimp
    15a8:	2100                	fld	fs0,0(a0)
    15aa:	0581                	addi	a1,a1,0
    15ac:	0000                	unimp
    15ae:	3d01                	jal	13be <_bss_end+0xc32>
    15b0:	3201                	jal	eb0 <_bss_end+0x724>
    15b2:	0001                	nop
    15b4:	1000                	addi	s0,sp,32
    15b6:	0000                	unimp
    15b8:	0100                	addi	s0,sp,128
    15ba:	069c                	addi	a5,sp,832
    15bc:	2500000b          	0x2500000b
    15c0:	000005f7          	0x5f7
    15c4:	3d01                	jal	13d4 <_bss_end+0xc48>
    15c6:	1118                	addi	a4,sp,160
    15c8:	0001                	nop
    15ca:	0100                	addi	s0,sp,128
    15cc:	295a                	fld	fs2,400(sp)
    15ce:	055e                	slli	a0,a0,0x17
    15d0:	0000                	unimp
    15d2:	3d01                	jal	13e2 <_bss_end+0xc56>
    15d4:	2c25                	jal	180c <_bss_end+0x1080>
    15d6:	0000                	unimp
    15d8:	8500                	0x8500
    15da:	0002                	c.slli64	zero
    15dc:	0000                	unimp
    15de:	8021                	srli	s0,s0,0x8
    15e0:	0002                	c.slli64	zero
    15e2:	0100                	addi	s0,sp,128
    15e4:	012c0133          	add	sp,s8,s2
    15e8:	0000                	unimp
    15ea:	0006                	c.slli	zero,0x1
    15ec:	0000                	unimp
    15ee:	9c01                	0x9c01
    15f0:	00000b2b          	0xb2b
    15f4:	a925                	j	1a2c <_bss_end+0x12a0>
    15f6:	0005                	c.nop	1
    15f8:	0100                	addi	s0,sp,128
    15fa:	00381b33          	sll	s6,a6,gp
    15fe:	0000                	unimp
    1600:	5a01                	li	s4,-32
    1602:	2d00                	fld	fs0,24(a0)
    1604:	0281                	addi	t0,t0,0
    1606:	0000                	unimp
    1608:	2901                	jal	1a18 <_bss_end+0x128c>
    160a:	2501                	jal	1c0a <_bss_end+0x147e>
    160c:	0000                	unimp
    160e:	0800                	addi	s0,sp,16
    1610:	0001                	nop
    1612:	2400                	fld	fs0,8(s0)
    1614:	0000                	unimp
    1616:	0100                	addi	s0,sp,128
    1618:	2e9c                	fld	fa5,24(a3)
    161a:	00000557          	0x557
    161e:	054d                	addi	a0,a0,19
    1620:	0000                	unimp
    1622:	0006                	c.slli	zero,0x1
    1624:	5800                	lw	s0,48(s0)
    1626:	0000                	unimp
    1628:	0400                	addi	s0,sp,512
    162a:	9700                	0x9700
    162c:	0005                	c.nop	1
    162e:	0400                	addi	s0,sp,512
    1630:	d001                	beqz	s0,1530 <_bss_end+0xda4>
    1632:	0002                	c.slli64	zero
    1634:	0c00                	addi	s0,sp,528
    1636:	0000060f          	0x60f
    163a:	0169                	addi	sp,sp,26
    163c:	0000                	unimp
    163e:	01f6                	slli	gp,gp,0x1d
    1640:	0000                	unimp
    1642:	000c                	0xc
    1644:	0000                	unimp
    1646:	0794                	addi	a3,sp,960
    1648:	0000                	unimp
    164a:	0202                	c.slli64	tp
    164c:	0006                	c.slli	zero,0x1
    164e:	0100                	addi	s0,sp,128
    1650:	0119                	addi	sp,sp,6
    1652:	01fe                	slli	gp,gp,0x1f
    1654:	0000                	unimp
    1656:	0004                	0x4
    1658:	0000                	unimp
    165a:	9c01                	0x9c01
    165c:	1702                	slli	a4,a4,0x20
    165e:	0006                	c.slli	zero,0x1
    1660:	0100                	addi	s0,sp,128
    1662:	01fa0113          	addi	sp,s4,31 # 3605f <_stack_start+0x2605f>
    1666:	0000                	unimp
    1668:	0004                	0x4
    166a:	0000                	unimp
    166c:	9c01                	0x9c01
    166e:	2502                	fld	fa0,0(sp)
    1670:	0006                	c.slli	zero,0x1
    1672:	0100                	addi	s0,sp,128
    1674:	010d                	addi	sp,sp,3
    1676:	01f6                	slli	gp,gp,0x1d
    1678:	0000                	unimp
    167a:	0004                	0x4
    167c:	0000                	unimp
    167e:	9c01                	0x9c01
    1680:	4c00                	lw	s0,24(s0)
    1682:	0001                	nop
    1684:	0400                	addi	s0,sp,512
    1686:	c300                	sw	s0,0(a4)
    1688:	0005                	c.nop	1
    168a:	0400                	addi	s0,sp,512
    168c:	d001                	beqz	s0,158c <_bss_end+0xe00>
    168e:	0002                	c.slli64	zero
    1690:	0c00                	addi	s0,sp,528
    1692:	0648                	addi	a0,sp,772
    1694:	0000                	unimp
    1696:	0169                	addi	sp,sp,26
	...
    16a0:	0000                	unimp
    16a2:	0816                	slli	a6,a6,0x5
    16a4:	0000                	unimp
    16a6:	0402                	c.slli64	s0
    16a8:	6905                	lui	s2,0x1
    16aa:	746e                	flw	fs0,248(sp)
    16ac:	0300                	addi	s0,sp,384
    16ae:	0025                	c.nop	9
    16b0:	0000                	unimp
    16b2:	0404                	addi	s1,sp,512
    16b4:	00004a07          	flq	fs4,0(zero) # 0 <__DYNAMIC>
    16b8:	0400                	addi	s0,sp,512
    16ba:	0508                	addi	a0,sp,640
    16bc:	00000097          	auipc	ra,0x0
    16c0:	1004                	addi	s1,sp,32
    16c2:	8c04                	0x8c04
    16c4:	0002                	c.slli64	zero
    16c6:	0500                	addi	s0,sp,640
    16c8:	0000064f          	fnmadd.s	fa2,ft0,ft0,ft0,rne
    16cc:	1201                	addi	tp,tp,-32
    16ce:	2501                	jal	1cce <_bss_end+0x1542>
    16d0:	0000                	unimp
    16d2:	4c00                	lw	s0,24(s0)
    16d4:	20000003          	lb	zero,512(zero) # 200 <stop_trigger+0x2>
    16d8:	0000                	unimp
    16da:	0100                	addi	s0,sp,128
    16dc:	e89c                	fsw	fa5,16(s1)
    16de:	0000                	unimp
    16e0:	0600                	addi	s0,sp,768
    16e2:	0000063b          	0x63b
    16e6:	1201                	addi	tp,tp,-32
    16e8:	0000250b          	0x250b
    16ec:	a600                	fsd	fs0,8(a2)
    16ee:	0002                	c.slli64	zero
    16f0:	0600                	addi	s0,sp,768
    16f2:	0636                	slli	a2,a2,0xd
    16f4:	0000                	unimp
    16f6:	1301                	addi	t1,t1,-32
    16f8:	e80d                	bnez	s0,172a <_bss_end+0xf9e>
    16fa:	0000                	unimp
    16fc:	c700                	sw	s0,8(a4)
    16fe:	0002                	c.slli64	zero
    1700:	0700                	addi	s0,sp,896
    1702:	0244                	addi	s1,sp,260
    1704:	0000                	unimp
    1706:	1501                	addi	a0,a0,-32
    1708:	2c10                	fld	fa2,24(s0)
    170a:	0000                	unimp
    170c:	0200                	addi	s0,sp,256
    170e:	6891                	lui	a7,0x4
    1710:	00064007          	flq	ft0,0(a2) # fffe4000 <_stack_start+0xfffd4000>
    1714:	0100                	addi	s0,sp,128
    1716:	1016                	c.slli	zero,0x25
    1718:	002c                	addi	a1,sp,8
    171a:	0000                	unimp
    171c:	9102                	jalr	sp
    171e:	086c                	addi	a1,sp,28
    1720:	0352                	slli	t1,t1,0x14
    1722:	0000                	unimp
    1724:	000000fb          	0xfb
    1728:	5408                	lw	a0,40(s0)
    172a:	07000003          	lb	zero,112(zero) # 70 <__DYNAMIC+0x70>
    172e:	0001                	nop
    1730:	0900                	addi	s0,sp,144
    1732:	0358                	addi	a4,sp,388
    1734:	0000                	unimp
    1736:	00000113          	li	sp,0
    173a:	000000c3          	fmadd.s	ft1,ft0,ft0,ft0,rne
    173e:	010a                	slli	sp,sp,0x2
    1740:	015a                	slli	sp,sp,0x16
    1742:	0030                	addi	a2,sp,8
    1744:	5a08                	lw	a0,48(a2)
    1746:	1f000003          	lb	zero,496(zero) # 1f0 <realloc_beebs+0x44>
    174a:	0001                	nop
    174c:	0800                	addi	s0,sp,16
    174e:	035c                	addi	a5,sp,388
    1750:	0000                	unimp
    1752:	0000012b          	0x12b
    1756:	6008                	flw	fa0,0(s0)
    1758:	37000003          	lb	zero,880(zero) # 370 <__CTOR_LIST__+0x4>
    175c:	0001                	nop
    175e:	0800                	addi	s0,sp,16
    1760:	0364                	addi	s1,sp,396
    1762:	0000                	unimp
    1764:	00000143          	fmadd.s	ft2,ft0,ft0,ft0,rne
    1768:	0b00                	addi	s0,sp,400
    176a:	ee04                	fsw	fs1,24(a2)
    176c:	0000                	unimp
    176e:	0b00                	addi	s0,sp,400
    1770:	f404                	fsw	fs1,40(s0)
    1772:	0000                	unimp
    1774:	0400                	addi	s0,sp,512
    1776:	0801                	addi	a6,a6,0
    1778:	0355                	addi	t1,t1,21
    177a:	0000                	unimp
    177c:	250c                	fld	fa1,8(a0)
    177e:	0006                	c.slli	zero,0x1
    1780:	2500                	fld	fs0,8(a0)
    1782:	0006                	c.slli	zero,0x1
    1784:	0200                	addi	s0,sp,256
    1786:	2e0c0623          	sb	zero,748(s8) # 5b486 <_stack_start+0x4b486>
    178a:	0005                	c.nop	1
    178c:	2e00                	fld	fs0,24(a2)
    178e:	0005                	c.nop	1
    1790:	0200                	addi	s0,sp,256
    1792:	400c062b          	0x400c062b
    1796:	40000003          	lb	zero,1024(zero) # 400 <__DTOR_END__+0x84>
    179a:	02000003          	lb	zero,32(zero) # 20 <__DYNAMIC+0x20>
    179e:	0631                	addi	a2,a2,12
    17a0:	170c                	addi	a1,sp,928
    17a2:	0006                	c.slli	zero,0x1
    17a4:	1700                	addi	s0,sp,928
    17a6:	0006                	c.slli	zero,0x1
    17a8:	0200                	addi	s0,sp,256
    17aa:	0624                	addi	s1,sp,776
    17ac:	390c                	fld	fa1,48(a0)
    17ae:	0005                	c.nop	1
    17b0:	3900                	fld	fs0,48(a0)
    17b2:	0005                	c.nop	1
    17b4:	0200                	addi	s0,sp,256
    17b6:	0536                	slli	a0,a0,0xd
    17b8:	020c                	addi	a1,sp,256
    17ba:	0006                	c.slli	zero,0x1
    17bc:	0200                	addi	s0,sp,256
    17be:	0006                	c.slli	zero,0x1
    17c0:	0200                	addi	s0,sp,256
    17c2:	0625                	addi	a2,a2,9
    17c4:	950c                	0x950c
    17c6:	0004                	0x4
    17c8:	9500                	0x9500
    17ca:	0004                	0x4
    17cc:	0200                	addi	s0,sp,256
    17ce:	1e00053b          	0x1e00053b
    17d2:	0000                	unimp
    17d4:	0200                	addi	s0,sp,256
    17d6:	7400                	flw	fs0,40(s0)
    17d8:	0006                	c.slli	zero,0x1
    17da:	0400                	addi	s0,sp,512
    17dc:	e401                	bnez	s0,17e4 <_bss_end+0x1058>
    17de:	0008                	0x8
    17e0:	1000                	addi	s0,sp,32
    17e2:	0000                	unimp
    17e4:	5400                	lw	s0,40(s0)
    17e6:	0006                	c.slli	zero,0x1
    17e8:	6900                	flw	fs0,16(a0)
    17ea:	0001                	nop
    17ec:	5b00                	lw	s0,48(a4)
    17ee:	0006                	c.slli	zero,0x1
    17f0:	0100                	addi	s0,sp,128
    17f2:	80              	Address 0x00000000000017f2 is out of bounds.


Disassembly of section .debug_abbrev:

00000000 <.debug_abbrev>:
  .endr
   0:	1101                	addi	sp,sp,-32
   2:	2501                	jal	602 <__DTOR_END__+0x286>
   4:	130e                	slli	t1,t1,0x23
   6:	1b0e030b          	0x1b0e030b
   a:	110e                	slli	sp,sp,0x23
   c:	1201                	addi	tp,tp,-32
   e:	1006                	c.slli	zero,0x21
  10:	02000017          	auipc	zero,0x2000
  14:	0024                	addi	s1,sp,8
  16:	0b3e0b0b          	0xb3e0b0b
  1a:	00000803          	lb	a6,0(zero) # 0 <__DYNAMIC>
  1e:	0b002403          	lw	s0,176(zero) # b0 <crc32pseudo+0x24>
  22:	030b3e0b          	0x30b3e0b
  26:	000e                	c.slli	zero,0x3
  28:	0400                	addi	s0,sp,512
  2a:	0016                	c.slli	zero,0x5
  2c:	0b3a0e03          	lb	t3,179(s4)
  30:	0b39053b          	0xb39053b
  34:	1349                	addi	t1,t1,-14
  36:	0000                	unimp
  38:	1605                	addi	a2,a2,-31
  3a:	0300                	addi	s0,sp,384
  3c:	3a0e                	fld	fs4,224(sp)
  3e:	390b3b0b          	0x390b3b0b
  42:	0013490b          	0x13490b
  46:	0600                	addi	s0,sp,768
  48:	0b0b0117          	auipc	sp,0xb0b0
  4c:	0b3a                	slli	s6,s6,0xe
  4e:	0b390b3b          	0xb390b3b
  52:	1301                	addi	t1,t1,-32
  54:	0000                	unimp
  56:	03000d07          	0x3000d07
  5a:	3a0e                	fld	fs4,224(sp)
  5c:	390b3b0b          	0x390b3b0b
  60:	0013490b          	0x13490b
  64:	0800                	addi	s0,sp,16
  66:	0101                	addi	sp,sp,0
  68:	1349                	addi	t1,t1,-14
  6a:	1301                	addi	t1,t1,-32
  6c:	0000                	unimp
  6e:	2109                	jal	470 <__DTOR_END__+0xf4>
  70:	4900                	lw	s0,16(a0)
  72:	000b2f13          	slti	t5,s6,0
  76:	0a00                	addi	s0,sp,272
  78:	0b0b0113          	addi	sp,s6,176
  jal x0, default_exc_handler
  7c:	0b3a                	slli	s6,s6,0xe
  7e:	0b390b3b          	0xb390b3b
  jal x0, reset_handler
  82:	1301                	addi	t1,t1,-32
  jal x0, default_exc_handler
  84:	0000                	unimp
  86:	03000d0b          	0x3000d0b
  jal x0, default_exc_handler
  8a:	3a0e                	fld	fs4,224(sp)
{
  8c:	390b3b0b          	0x390b3b0b
  90:	3813490b          	0x3813490b
  94:	0c00000b          	0xc00000b
  98:	0b0b000f          	0xb0b000f
      oldcrc32 = UPDC32 (rand_beebs (), oldcrc32);
  9c:	0000                	unimp
  9e:	130d                	addi	t1,t1,-29
  a0:	0301                	addi	t1,t1,0
  a2:	0b0e                	slli	s6,s6,0x3
  a4:	3b0b3a0b          	0x3b0b3a0b
  a8:	010b390b          	0x10b390b
  ac:	0e000013          	li	zero,224
  b0:	000d                	c.nop	3
  b2:	0b3a0803          	lb	a6,179(s4)
}
  b6:	0b390b3b          	0xb390b3b
  ba:	1349                	addi	t1,t1,-14
  bc:	0b38                	addi	a4,sp,408
  be:	0000                	unimp
  c0:	0b000f0f          	0xb000f0f
  c4:	0013490b          	0x13490b
{
  c8:	1000                	addi	s0,sp,32
  ca:	0e030113          	addi	sp,t1,224
  ce:	0b3a050b          	0xb3a050b
  for (i = 0; i < rpt; i++)
  d2:	0b390b3b          	0xb390b3b
}
  d6:	1301                	addi	t1,t1,-32
  d8:	0000                	unimp
  return (int) (r % 32768);
  da:	0d11                	addi	s10,s10,4
  dc:	0300                	addi	s0,sp,384
}
  de:	3a0e                	fld	fs4,224(sp)
  e0:	390b3b0b          	0x390b3b0b
  e4:	3813490b          	0x3813490b
      srand_beebs (0);
  e8:	0005                	c.nop	1
      r = crc32pseudo ();
  ea:	1200                	addi	s0,sp,288
  ec:	0015                	c.nop	5
  for (i = 0; i < rpt; i++)
  ee:	00001927          	0x1927
}
  f2:	27011513          	0x27011513
  return benchmark_body (LOCAL_SCALE_FACTOR * CPU_MHZ);
  f6:	4919                	li	s2,6
  f8:	00130113          	addi	sp,t1,1
  return 11433 == r;
  fc:	1400                	addi	s0,sp,544
  fe:	0005                	c.nop	1
 100:	1349                	addi	t1,t1,-14
}
 102:	0000                	unimp
 104:	2615                	jal	428 <__DTOR_END__+0xac>
 106:	4900                	lw	s0,16(a0)
  seed = (seed * 1103515245L + 12345) & ((1UL << 31) - 1);
 108:	16000013          	li	zero,352
 10c:	0e030113          	addi	sp,t1,224
 110:	0b3a050b          	0xb3a050b
 114:	0b39053b          	0xb39053b
 118:	1301                	addi	t1,t1,-32
 11a:	0000                	unimp
 11c:	03000d17          	auipc	s10,0x3000
 120:	3a0e                	fld	fs4,224(sp)
 122:	39053b0b          	0x39053b0b
 126:	3813490b          	0x3813490b
}
 12a:	1800000b          	0x1800000b
  seed = (long int) new_seed;
 12e:	000d                	c.nop	3
}
 130:	0b3a0e03          	lb	t3,179(s4)
  heap_ptr = (void *) heap;
 134:	0b39053b          	0xb39053b
  heap_end = (void *) ((char *) heap_ptr + heap_size);
 138:	1349                	addi	t1,t1,-14
 13a:	0538                	addi	a4,sp,648
  heap_requested = 0;
 13c:	0000                	unimp
 13e:	1319                	addi	t1,t1,-26
}
 140:	0301                	addi	t1,t1,0
  return ((void *) ((char *) heap + heap_requested) <= heap_end);
 142:	0b0e                	slli	s6,s6,0x3
 144:	3b0b3a0b          	0x3b0b3a0b
 148:	3905                	jal	fffffd78 <_stack_start+0xfffefd78>
 14a:	0013010b          	0x13010b
 14e:	1a00                	addi	s0,sp,304
 150:	0b0b0113          	addi	sp,s6,176
}
 154:	0b3a                	slli	s6,s6,0xe
 156:	0b39053b          	0xb39053b
  heap_requested += size;
 15a:	1301                	addi	t1,t1,-32
 15c:	0000                	unimp
 15e:	0b01171b          	0xb01171b
  void *new_ptr = heap_ptr;
 162:	3b0b3a0b          	0x3b0b3a0b
  heap_requested += size;
 166:	3905                	jal	fffffd96 <_stack_start+0xfffefd96>
 168:	0013010b          	0x13010b
  if (((void *) ((char *) heap_ptr + size) > heap_end) || (0 == size))
 16c:	1c00                	addi	s0,sp,560
 16e:	000d                	c.nop	3
 170:	0b3a0e03          	lb	t3,179(s4)
 174:	0b39053b          	0xb39053b
 178:	1349                	addi	t1,t1,-14
 17a:	0000                	unimp
      heap_ptr = (void *) ((char *) heap_ptr + size);
 17c:	131d                	addi	t1,t1,-25
 17e:	0300                	addi	s0,sp,384
}
 180:	3c0e                	fld	fs8,224(sp)
 182:	0019                	c.nop	6
    return NULL;
 184:	1e00                	addi	s0,sp,816
 186:	0115                	addi	sp,sp,5
  void *new_ptr = malloc_beebs (nmemb * size);
 188:	13011927          	0x13011927
{
 18c:	0000                	unimp
 18e:	341f 0300 3a0e      	0x3a0e0300341f
  void *new_ptr = malloc_beebs (nmemb * size);
 194:	39053b0b          	0x39053b0b
 198:	3f13490b          	0x3f13490b
    memset (new_ptr, 0, nmemb * size);
 19c:	3c19                	jal	fffffbb2 <_stack_start+0xfffefbb2>
 19e:	0019                	c.nop	6
 1a0:	2000                	fld	fs0,0(s0)
}
 1a2:	0034                	addi	a3,sp,8
 1a4:	0b3a0e03          	lb	t3,179(s4)
 1a8:	0b390b3b          	0xb390b3b
  heap_requested += size;
 1ac:	1349                	addi	t1,t1,-14
 1ae:	193c193f 34210000 	0x34210000193c193f
  void *new_ptr = heap_ptr;
 1b6:	0300                	addi	s0,sp,384
  heap_requested += size;
 1b8:	3a0e                	fld	fs4,224(sp)
 1ba:	390b3b0b          	0x390b3b0b
  if (((void *) ((char *) heap_ptr + size) > heap_end) || (0 == size))
 1be:	0213490b          	0x213490b
 1c2:	0018                	0x18
 1c4:	2200                	fld	fs0,0(a2)
 1c6:	012e                	slli	sp,sp,0xb
 1c8:	0e03193f 0b3b0b3a 	0xb3b0b3a0e03193f
      heap_ptr = (void *) ((char *) heap_ptr + size);
 1d0:	0b39                	addi	s6,s6,14
      if (NULL != ptr)
 1d2:	13491927          	0x13491927
	    ((char *) new_ptr)[i] = ((char *) ptr)[i];
 1d6:	0111                	addi	sp,sp,4
 1d8:	0612                	slli	a2,a2,0x4
 1da:	1840                	addi	s0,sp,52
 1dc:	01194297          	auipc	t0,0x1194
 1e0:	23000013          	li	zero,560
 1e4:	0005                	c.nop	1
 1e6:	0b3a0803          	lb	a6,179(s4)
	  for (i = 0; i < size; i++)
 1ea:	0b390b3b          	0xb390b3b
}
 1ee:	1349                	addi	t1,t1,-14
    return NULL;
 1f0:	1702                	slli	a4,a4,0x20
 1f2:	0000                	unimp
}
 1f4:	2e24                	fld	fs1,88(a2)
  __asm__ volatile ("li a0, 0" : : : "memory");
 1f6:	0301                	addi	t1,t1,0
}
 1f8:	3a0e                	fld	fs4,224(sp)
  __asm__ volatile ("li a0, 0" : : : "memory");
 1fa:	390b3b0b          	0x390b3b0b
  __asm__ volatile ("li a0, 0" : : : "memory");
 1fe:	4919270b          	0x4919270b
  jal x0, default_exc_handler
 202:	12011113          	0x12011113
  mv  x1, x0
 206:	4006                	0x4006
 208:	9718                	0x9718
  mv  x2, x1
 20a:	1942                	slli	s2,s2,0x30
  mv  x3, x1
 20c:	1301                	addi	t1,t1,-32
  mv  x4, x1
 20e:	0000                	unimp
  mv  x5, x1
 210:	3425                	jal	fffffc38 <_stack_start+0xfffefc38>
  mv  x6, x1
 212:	0300                	addi	s0,sp,384
  mv  x7, x1
 214:	3a08                	fld	fa0,48(a2)
  mv  x8, x1
 216:	390b3b0b          	0x390b3b0b
  mv x10, x1
 21a:	0213490b          	0x213490b
  mv x12, x1
 21e:	26000017          	auipc	zero,0x26000
  mv x14, x1
 222:	8289                	srli	a3,a3,0x2
  mv x15, x1
 224:	0101                	addi	sp,sp,0
  mv x16, x1
 226:	0111                	addi	sp,sp,4
  mv x17, x1
 228:	1331                	addi	t1,t1,-20
  mv x18, x1
 22a:	1301                	addi	t1,t1,-32
  mv x19, x1
 22c:	0000                	unimp
  mv x20, x1
 22e:	01828a27          	0x1828a27
  mv x22, x1
 232:	0200                	addi	s0,sp,256
  mv x23, x1
 234:	9118                	0x9118
  mv x24, x1
 236:	1842                	slli	a6,a6,0x30
  mv x25, x1
 238:	0000                	unimp
  mv x26, x1
 23a:	8928                	0x8928
  mv x27, x1
 23c:	0182                	c.slli64	gp
  mv x28, x1
 23e:	1100                	addi	s0,sp,160
  mv x29, x1
 240:	3101                	jal	fffffe40 <_stack_start+0xfffefe40>
  mv x30, x1
 242:	29000013          	li	zero,656
  la   x2, _stack_start
 246:	8289                	srli	a3,a3,0x2
 248:	0101                	addi	sp,sp,0
 24a:	0111                	addi	sp,sp,4
 24c:	4295                	li	t0,5
  la x26, _bss_start
 24e:	3119                	jal	fffffe54 <_stack_start+0xfffefe54>
 250:	2a000013          	li	zero,672
  la x27, _bss_end
 254:	012e                	slli	sp,sp,0xb
  bge x26, x27, zero_loop_end
 256:	0e03193f 0b3b0b3a 	0xb3b0b3a0e03193f
  addi x26, x26, 4
 25e:	0b39                	addi	s6,s6,14
  ble x26, x27, zero_loop
 260:	01111927          	0x1111927
  addi x10, x0, 0
 264:	0612                	slli	a2,a2,0x4
 266:	1840                	addi	s0,sp,52
  addi x11, x0, 0
 268:	01194297          	auipc	t0,0x1194
  jal x1, main
 26c:	2b000013          	li	zero,688
 270:	0005                	c.nop	1
 272:	0b3a0e03          	lb	t3,179(s4)
 276:	0b390b3b          	0xb390b3b
 27a:	1349                	addi	t1,t1,-14
 27c:	1702                	slli	a4,a4,0x20
 27e:	0000                	unimp
 280:	342c                	fld	fa1,104(s0)
 282:	0300                	addi	s0,sp,384
 284:	3a08                	fld	fa0,48(a2)
 286:	390b3b0b          	0x390b3b0b
 28a:	0013490b          	0x13490b
 28e:	2d00                	fld	fs0,24(a0)
 290:	002e                	c.slli	zero,0xb
 292:	0e03193f 0b3b0b3a 	0xb3b0b3a0e03193f
 29a:	0b39                	addi	s6,s6,14
 29c:	01111927          	0x1111927
 2a0:	0612                	slli	a2,a2,0x4
 2a2:	1840                	addi	s0,sp,52
 2a4:	00194297          	auipc	t0,0x194
 2a8:	2e00                	fld	fs0,24(a2)
 2aa:	012e                	slli	sp,sp,0xb
 2ac:	0e03193f 0b3b0b3a 	0xb3b0b3a0e03193f
 2b4:	0b39                	addi	s6,s6,14
 2b6:	1349                	addi	t1,t1,-14
 2b8:	0111                	addi	sp,sp,4
 2ba:	0612                	slli	a2,a2,0x4
 2bc:	1840                	addi	s0,sp,52
 2be:	01194297          	auipc	t0,0x1194
 2c2:	2f000013          	li	zero,752
 2c6:	0034                	addi	a3,sp,8
 2c8:	0b3a0e03          	lb	t3,179(s4)
 2cc:	0b390b3b          	0xb390b3b
 2d0:	1349                	addi	t1,t1,-14
 2d2:	1702                	slli	a4,a4,0x20
 2d4:	0000                	unimp
 2d6:	2e30                	fld	fa2,88(a2)
 2d8:	3f00                	fld	fs0,56(a4)
 2da:	3c19                	jal	fffffcf0 <_stack_start+0xfffefcf0>
 2dc:	6e19                	lui	t3,0x6
 2de:	030e                	slli	t1,t1,0x3
 2e0:	3a0e                	fld	fs4,224(sp)
 2e2:	390b3b0b          	0x390b3b0b
 2e6:	0000000b          	0xb
 2ea:	1101                	addi	sp,sp,-32
 2ec:	2501                	jal	8ec <_bss_end+0x160>
 2ee:	130e                	slli	t1,t1,0x23
 2f0:	1b0e030b          	0x1b0e030b
 2f4:	110e                	slli	sp,sp,0x23
 2f6:	1201                	addi	tp,tp,-32
 2f8:	1006                	c.slli	zero,0x21
 2fa:	02000017          	auipc	zero,0x2000
 2fe:	0024                	addi	s1,sp,8
 300:	0b3e0b0b          	0xb3e0b0b
 304:	00000803          	lb	a6,0(zero) # 0 <__DYNAMIC>
 308:	03001603          	lh	a2,48(zero) # 30 <__DYNAMIC+0x30>
 30c:	3a0e                	fld	fs4,224(sp)
 30e:	390b3b0b          	0x390b3b0b
 312:	0013490b          	0x13490b
 316:	0400                	addi	s0,sp,512
 318:	0024                	addi	s1,sp,8
 31a:	0b3e0b0b          	0xb3e0b0b
 31e:	00000e03          	lb	t3,0(zero) # 0 <__DYNAMIC>
 322:	1605                	addi	a2,a2,-31
 324:	0300                	addi	s0,sp,384
 326:	3a0e                	fld	fs4,224(sp)
 328:	39053b0b          	0x39053b0b
 32c:	0013490b          	0x13490b
 330:	0600                	addi	s0,sp,768
 332:	0b0b0117          	auipc	sp,0xb0b0
 336:	0b3a                	slli	s6,s6,0xe
 338:	0b390b3b          	0xb390b3b
 33c:	1301                	addi	t1,t1,-32
 33e:	0000                	unimp
 340:	03000d07          	0x3000d07
 344:	3a0e                	fld	fs4,224(sp)
 346:	390b3b0b          	0x390b3b0b
 34a:	0013490b          	0x13490b
{
 34e:	0800                	addi	s0,sp,16
  initialise_board ();
 350:	0101                	addi	sp,sp,0
  initialise_benchmark ();
 352:	1349                	addi	t1,t1,-14
  warm_caches (WARMUP_HEAT);
 354:	1301                	addi	t1,t1,-32
 356:	0000                	unimp
  start_trigger ();
 358:	2109                	jal	75a <__DTOR_END__+0x3de>
  result = benchmark ();
 35a:	4900                	lw	s0,16(a0)
 35c:	000b2f13          	slti	t5,s6,0
  correct = verify_benchmark (result);
 360:	0a00                	addi	s0,sp,272
 362:	0b0b0113          	addi	sp,s6,176
    asm("wfi");
 366:	0b3a                	slli	s6,s6,0xe
 368:	0b390b3b          	0xb390b3b
 36c:	1301                	addi	t1,t1,-32
 36e:	0000                	unimp
 370:	03000d0b          	0x3000d0b
 374:	3a0e                	fld	fs4,224(sp)
 376:	390b3b0b          	0x390b3b0b
 37a:	3813490b          	0x3813490b
 37e:	0c00000b          	0xc00000b
 382:	0b0b000f          	0xb0b000f
 386:	0000                	unimp
 388:	130d                	addi	t1,t1,-29
 38a:	0301                	addi	t1,t1,0
 38c:	0b0e                	slli	s6,s6,0x3
 38e:	3b0b3a0b          	0x3b0b3a0b
 392:	010b390b          	0x10b390b
 396:	0e000013          	li	zero,224
 39a:	000d                	c.nop	3
 39c:	0b3a0803          	lb	a6,179(s4)
 3a0:	0b390b3b          	0xb390b3b
 3a4:	1349                	addi	t1,t1,-14
 3a6:	0b38                	addi	a4,sp,408
 3a8:	0000                	unimp
 3aa:	0b000f0f          	0xb000f0f
 3ae:	0013490b          	0x13490b
 3b2:	1000                	addi	s0,sp,32
 3b4:	0e030113          	addi	sp,t1,224
 3b8:	0b3a050b          	0xb3a050b
 3bc:	0b390b3b          	0xb390b3b
 3c0:	1301                	addi	t1,t1,-32
 3c2:	0000                	unimp
 3c4:	0d11                	addi	s10,s10,4
 3c6:	0300                	addi	s0,sp,384
 3c8:	3a0e                	fld	fs4,224(sp)
 3ca:	390b3b0b          	0x390b3b0b
 3ce:	3813490b          	0x3813490b
 3d2:	0005                	c.nop	1
 3d4:	1200                	addi	s0,sp,288
 3d6:	0015                	c.nop	5
 3d8:	00001927          	0x1927
 3dc:	27011513          	0x27011513
 3e0:	4919                	li	s2,6
 3e2:	00130113          	addi	sp,t1,1
 3e6:	1400                	addi	s0,sp,544
 3e8:	0005                	c.nop	1
 3ea:	1349                	addi	t1,t1,-14
 3ec:	0000                	unimp
 3ee:	2615                	jal	712 <__DTOR_END__+0x396>
 3f0:	4900                	lw	s0,16(a0)
 3f2:	16000013          	li	zero,352
 3f6:	0e030113          	addi	sp,t1,224
 3fa:	0b3a050b          	0xb3a050b
 3fe:	0b39053b          	0xb39053b
 402:	1301                	addi	t1,t1,-32
 404:	0000                	unimp
 406:	03000d17          	auipc	s10,0x3000
 40a:	3a0e                	fld	fs4,224(sp)
 40c:	39053b0b          	0x39053b0b
 410:	3813490b          	0x3813490b
 414:	1800000b          	0x1800000b
 418:	000d                	c.nop	3
 41a:	0b3a0e03          	lb	t3,179(s4)
 41e:	0b39053b          	0xb39053b
 422:	1349                	addi	t1,t1,-14
 424:	0538                	addi	a4,sp,648
 426:	0000                	unimp
 428:	1319                	addi	t1,t1,-26
 42a:	0301                	addi	t1,t1,0
 42c:	0b0e                	slli	s6,s6,0x3
 42e:	3b0b3a0b          	0x3b0b3a0b
 432:	3905                	jal	62 <__DYNAMIC+0x62>
 434:	0013010b          	0x13010b
 438:	1a00                	addi	s0,sp,304
 43a:	0b0b0113          	addi	sp,s6,176
 43e:	0b3a                	slli	s6,s6,0xe
 440:	0b39053b          	0xb39053b
 444:	1301                	addi	t1,t1,-32
 446:	0000                	unimp
 448:	0b01171b          	0xb01171b
 44c:	3b0b3a0b          	0x3b0b3a0b
 450:	3905                	jal	80 <__DYNAMIC+0x80>
 452:	0013010b          	0x13010b
 456:	1c00                	addi	s0,sp,560
 458:	000d                	c.nop	3
 45a:	0b3a0e03          	lb	t3,179(s4)
 45e:	0b39053b          	0xb39053b
 462:	1349                	addi	t1,t1,-14
 464:	0000                	unimp
 466:	131d                	addi	t1,t1,-25
 468:	0300                	addi	s0,sp,384
 46a:	3c0e                	fld	fs8,224(sp)
 46c:	0019                	c.nop	6
 46e:	1e00                	addi	s0,sp,816
 470:	0115                	addi	sp,sp,5
 472:	13011927          	0x13011927
 476:	0000                	unimp
 478:	341f 0300 3a0e      	0x3a0e0300341f
 47e:	39053b0b          	0x39053b0b
 482:	3f13490b          	0x3f13490b
 486:	3c19                	jal	fffffe9c <_stack_start+0xfffefe9c>
 488:	0019                	c.nop	6
 48a:	2000                	fld	fs0,0(s0)
 48c:	0034                	addi	a3,sp,8
 48e:	0b3a0e03          	lb	t3,179(s4)
 492:	0b390b3b          	0xb390b3b
 496:	1349                	addi	t1,t1,-14
 498:	1802                	slli	a6,a6,0x20
 49a:	0000                	unimp
 49c:	2e21                	jal	7b4 <_bss_end+0x28>
 49e:	3f01                	jal	3ae <__DTOR_END__+0x32>
 4a0:	0319                	addi	t1,t1,6
 4a2:	3a0e                	fld	fs4,224(sp)
 4a4:	390b3b0b          	0x390b3b0b
 4a8:	1119270b          	0x1119270b
 4ac:	1201                	addi	tp,tp,-32
 4ae:	4006                	0x4006
 4b0:	9718                	0x9718
 4b2:	1942                	slli	s2,s2,0x30
 4b4:	1301                	addi	t1,t1,-32
 4b6:	0000                	unimp
 4b8:	0522                	slli	a0,a0,0x8
 4ba:	0300                	addi	s0,sp,384
 4bc:	3a08                	fld	fa0,48(a2)
 4be:	390b3b0b          	0x390b3b0b
 4c2:	0213490b          	0x213490b
 4c6:	0018                	0x18
 4c8:	2300                	fld	fs0,0(a4)
 4ca:	012e                	slli	sp,sp,0xb
 4cc:	0e03193f 0b3b0b3a 	0xb3b0b3a0e03193f
 4d4:	0b39                	addi	s6,s6,14
 4d6:	13491927          	0x13491927
 4da:	0111                	addi	sp,sp,4
 4dc:	0612                	slli	a2,a2,0x4
 4de:	1840                	addi	s0,sp,52
 4e0:	01194297          	auipc	t0,0x1194
 4e4:	24000013          	li	zero,576
 4e8:	0005                	c.nop	1
 4ea:	0b3a0803          	lb	a6,179(s4)
 4ee:	0b390b3b          	0xb390b3b
 4f2:	1349                	addi	t1,t1,-14
 4f4:	1702                	slli	a4,a4,0x20
 4f6:	0000                	unimp
 4f8:	0525                	addi	a0,a0,9
 4fa:	0300                	addi	s0,sp,384
 4fc:	3a0e                	fld	fs4,224(sp)
 4fe:	390b3b0b          	0x390b3b0b
 502:	0213490b          	0x213490b
 506:	0018                	0x18
 508:	2600                	fld	fs0,8(a2)
 50a:	0034                	addi	a3,sp,8
 50c:	0b3a0e03          	lb	t3,179(s4)
 510:	0b390b3b          	0xb390b3b
 514:	1349                	addi	t1,t1,-14
 516:	1702                	slli	a4,a4,0x20
 518:	0000                	unimp
 51a:	11010b27          	0x11010b27
 51e:	1201                	addi	tp,tp,-32
 520:	0006                	c.slli	zero,0x1
 522:	2800                	fld	fs0,16(s0)
 524:	0034                	addi	a3,sp,8
 526:	0b3a0803          	lb	a6,179(s4)
 52a:	0b390b3b          	0xb390b3b
 52e:	1349                	addi	t1,t1,-14
 530:	1702                	slli	a4,a4,0x20
 532:	0000                	unimp
 534:	0529                	addi	a0,a0,10
 536:	0300                	addi	s0,sp,384
 538:	3a0e                	fld	fs4,224(sp)
 53a:	390b3b0b          	0x390b3b0b
 53e:	0213490b          	0x213490b
 542:	2a000017          	auipc	zero,0x2a000
 546:	8289                	srli	a3,a3,0x2
 548:	0101                	addi	sp,sp,0
 54a:	0111                	addi	sp,sp,4
 54c:	1331                	addi	t1,t1,-20
 54e:	1301                	addi	t1,t1,-32
 550:	0000                	unimp
 552:	01828a2b          	0x1828a2b
 556:	0200                	addi	s0,sp,256
 558:	9118                	0x9118
 55a:	1842                	slli	a6,a6,0x30
 55c:	0000                	unimp
 55e:	892c                	0x892c
 560:	0182                	c.slli64	gp
 562:	1101                	addi	sp,sp,-32
 564:	3101                	jal	164 <malloc_beebs+0xa>
 566:	2d000013          	li	zero,720
 56a:	002e                	c.slli	zero,0xb
 56c:	0e03193f 0b3b0b3a 	0xb3b0b3a0e03193f
 574:	0b39                	addi	s6,s6,14
 576:	13491927          	0x13491927
 57a:	0111                	addi	sp,sp,4
 57c:	0612                	slli	a2,a2,0x4
 57e:	1840                	addi	s0,sp,52
 580:	00194297          	auipc	t0,0x194
 584:	2e00                	fld	fs0,24(a2)
 586:	002e                	c.slli	zero,0xb
 588:	193c193f 0e030e6e 	0xe030e6e193c193f
 590:	0b3a                	slli	s6,s6,0xe
 592:	00000b3b          	0xb3b
 596:	0100                	addi	s0,sp,128
 598:	0111                	addi	sp,sp,4
 59a:	0e25                	addi	t3,t3,9
 59c:	0e030b13          	addi	s6,t1,224
 5a0:	01110e1b          	0x1110e1b
 5a4:	0612                	slli	a2,a2,0x4
 5a6:	1710                	addi	a2,sp,928
 5a8:	0000                	unimp
 5aa:	2e02                	fld	ft8,0(sp)
 5ac:	3f00                	fld	fs0,56(a4)
 5ae:	0319                	addi	t1,t1,6
 5b0:	3a0e                	fld	fs4,224(sp)
 5b2:	390b3b0b          	0x390b3b0b
 5b6:	1201110b          	0x1201110b
 5ba:	4006                	0x4006
 5bc:	9718                	0x9718
 5be:	1942                	slli	s2,s2,0x30
 5c0:	0000                	unimp
 5c2:	0100                	addi	s0,sp,128
 5c4:	0111                	addi	sp,sp,4
 5c6:	0e25                	addi	t3,t3,9
 5c8:	0e030b13          	addi	s6,t1,224
 5cc:	17550e1b          	0x17550e1b
 5d0:	0111                	addi	sp,sp,4
 5d2:	1710                	addi	a2,sp,928
 5d4:	0000                	unimp
 5d6:	2402                	fld	fs0,0(sp)
 5d8:	0b00                	addi	s0,sp,400
 5da:	030b3e0b          	0x30b3e0b
 5de:	0008                	0x8
 5e0:	0300                	addi	s0,sp,384
 5e2:	0035                	c.nop	13
 5e4:	1349                	addi	t1,t1,-14
 5e6:	0000                	unimp
 5e8:	2404                	fld	fs1,8(s0)
 5ea:	0b00                	addi	s0,sp,400
 5ec:	030b3e0b          	0x30b3e0b
 5f0:	000e                	c.slli	zero,0x3
 5f2:	0500                	addi	s0,sp,640
 5f4:	012e                	slli	sp,sp,0xb
 5f6:	0e03193f 0b3b0b3a 	0xb3b0b3a0e03193f
 5fe:	0b39                	addi	s6,s6,14
 600:	13491927          	0x13491927
 604:	0111                	addi	sp,sp,4
 606:	0612                	slli	a2,a2,0x4
 608:	1840                	addi	s0,sp,52
 60a:	01194297          	auipc	t0,0x1194
 60e:	06000013          	li	zero,96
 612:	0005                	c.nop	1
 614:	0b3a0e03          	lb	t3,179(s4)
 618:	0b390b3b          	0xb390b3b
 61c:	1349                	addi	t1,t1,-14
 61e:	1702                	slli	a4,a4,0x20
 620:	0000                	unimp
 622:	03003407          	fld	fs0,48(zero) # 30 <__DYNAMIC+0x30>
 626:	3a0e                	fld	fs4,224(sp)
 628:	390b3b0b          	0x390b3b0b
 62c:	0213490b          	0x213490b
 630:	0018                	0x18
 632:	0800                	addi	s0,sp,16
 634:	8289                	srli	a3,a3,0x2
 636:	0001                	nop
 638:	0111                	addi	sp,sp,4
 63a:	1331                	addi	t1,t1,-20
 63c:	0000                	unimp
 63e:	8909                	andi	a0,a0,2
 640:	0182                	c.slli64	gp
 642:	1101                	addi	sp,sp,-32
 644:	3101                	jal	244 <reset_handler+0x3e>
 646:	00130113          	addi	sp,t1,1
 64a:	0a00                	addi	s0,sp,272
 64c:	828a                	mv	t0,sp
 64e:	0001                	nop
 650:	1802                	slli	a6,a6,0x20
 652:	4291                	li	t0,4
 654:	0018                	0x18
 656:	0b00                	addi	s0,sp,400
 658:	0b0b000f          	0xb0b000f
 65c:	1349                	addi	t1,t1,-14
 65e:	0000                	unimp
 660:	2e0c                	fld	fa1,24(a2)
 662:	3f00                	fld	fs0,56(a4)
 664:	3c19                	jal	7a <__DYNAMIC+0x7a>
 666:	6e19                	lui	t3,0x6
 668:	030e                	slli	t1,t1,0x3
 66a:	3a0e                	fld	fs4,224(sp)
 66c:	390b3b0b          	0x390b3b0b
 670:	0000000b          	0xb
 674:	1101                	addi	sp,sp,-32
 676:	1000                	addi	s0,sp,32
 678:	5506                	lw	a0,96(sp)
 67a:	0306                	slli	t1,t1,0x1
 67c:	1b0e                	slli	s6,s6,0x23
 67e:	250e                	fld	fa0,192(sp)
 680:	130e                	slli	t1,t1,0x23
 682:	0005                	c.nop	1
	...

Disassembly of section .debug_loc:

00000000 <.debug_loc>:
  .endr
   0:	006e                	c.slli	zero,0x1b
   2:	0000                	unimp
   4:	0076                	c.slli	zero,0x1d
   6:	0000                	unimp
   8:	0001                	nop
   a:	765a                	flw	fa2,180(sp)
   c:	0000                	unimp
   e:	7a00                	flw	fs0,48(a2)
  10:	0000                	unimp
  12:	0500                	addi	s0,sp,640
  14:	7a00                	flw	fs0,48(a2)
  16:	d9a9                	beqz	a1,ffffff68 <_stack_start+0xfffeff68>
  18:	9f00                	0x9f00
  1a:	007a                	c.slli	zero,0x1e
  1c:	0000                	unimp
  1e:	007c                	addi	a5,sp,12
  20:	0000                	unimp
  22:	0004                	0x4
  24:	9f5a01f3          	0x9f5a01f3
	...
  30:	003a                	c.slli	zero,0xe
  32:	0000                	unimp
  34:	0046                	c.slli	zero,0x11
  36:	0000                	unimp
  38:	0001                	nop
  3a:	465a                	lw	a2,148(sp)
  3c:	0000                	unimp
  3e:	5400                	lw	s0,40(s0)
  40:	0000                	unimp
  42:	0100                	addi	s0,sp,128
  44:	5900                	lw	s0,48(a0)
  46:	0054                	addi	a3,sp,4
  48:	0000                	unimp
  4a:	005a                	c.slli	zero,0x16
  4c:	0000                	unimp
  4e:	0004                	0x4
  50:	9f5a01f3          	0x9f5a01f3
  54:	005a                	c.slli	zero,0x16
  56:	0000                	unimp
  58:	0066                	c.slli	zero,0x19
  5a:	0000                	unimp
  5c:	0001                	nop
  5e:	0059                	c.nop	22
  60:	0000                	unimp
  62:	0000                	unimp
  64:	0000                	unimp
  66:	3a00                	fld	fs0,48(a2)
  68:	0000                	unimp
  6a:	4600                	lw	s0,8(a2)
  6c:	0000                	unimp
  6e:	0200                	addi	s0,sp,256
  70:	3000                	fld	fs0,32(s0)
  72:	469f 0000 4e00      	0x4e000000469f
  78:	0000                	unimp
  7a:	0100                	addi	s0,sp,128
  jal x0, default_exc_handler
  7c:	5800                	lw	s0,48(s0)
  7e:	005a                	c.slli	zero,0x16
  jal x0, reset_handler
  80:	0000                	unimp
  82:	0066                	c.slli	zero,0x19
  jal x0, default_exc_handler
  84:	0000                	unimp
  86:	0001                	nop
  jal x0, default_exc_handler
  88:	0058                	addi	a4,sp,4
  8a:	0000                	unimp
{
  8c:	0000                	unimp
  8e:	0000                	unimp
  90:	4600                	lw	s0,8(a2)
  92:	0000                	unimp
  94:	5d00                	lw	s0,56(a0)
  96:	0000                	unimp
  98:	0100                	addi	s0,sp,128
  oldcrc32 = 0xFFFFFFFF;
  9a:	5f00                	lw	s0,56(a4)
      oldcrc32 = UPDC32 (rand_beebs (), oldcrc32);
  9c:	0062                	c.slli	zero,0x18
  9e:	0000                	unimp
  a0:	0066                	c.slli	zero,0x19
  a2:	0000                	unimp
  a4:	0001                	nop
  a6:	005a                	c.slli	zero,0x16
  a8:	0000                	unimp
  aa:	0000                	unimp
  ac:	0000                	unimp
  ae:	6800                	flw	fs0,16(s0)
  b0:	0000                	unimp
  b2:	6900                	flw	fs0,16(a0)
  for (i = 0; i < 1024; ++i)
  b4:	0000                	unimp
}
  b6:	0100                	addi	s0,sp,128
  b8:	5a00                	lw	s0,48(a2)
  ba:	0069                	c.nop	26
  bc:	0000                	unimp
  be:	006a                	c.slli	zero,0x1a
  c0:	0000                	unimp
  c2:	0004                	0x4
  c4:	9f5a01f3          	0x9f5a01f3
	...
  for (i = 0; i < rpt; i++)
  d4:	0014                	0x14
}
  d6:	0000                	unimp
  d8:	0002                	c.slli64	zero
  return (int) (r % 32768);
  da:	9f30                	0x9f30
  dc:	0014                	0x14
}
  de:	0000                	unimp
  e0:	0026                	c.slli	zero,0x9
  e2:	0000                	unimp
  e4:	000a0007          	0xa0007
      srand_beebs (0);
  e8:	7904                	flw	fs1,48(a0)
      r = crc32pseudo ();
  ea:	1c00                	addi	s0,sp,560
  ec:	269f 0000 2800      	0x28000000269f
}
  f2:	0000                	unimp
  int  res = benchmark_body (heat);
  f4:	0700                	addi	s0,sp,896
  return benchmark_body (LOCAL_SCALE_FACTOR * CPU_MHZ);
  f6:	0a00                	addi	s0,sp,272
  f8:	03ff                	0x3ff
  return 11433 == r;
  fa:	0079                	c.nop	30
  fc:	9f1c                	0x9f1c
	...
  seed = (seed * 1103515245L + 12345) & ((1UL << 31) - 1);
 10a:	0014                	0x14
 10c:	0000                	unimp
 10e:	ff090003          	lb	zero,-16(s2) # ff0 <_bss_end+0x864>
 112:	149f 0000 2400      	0x24000000149f
 118:	0000                	unimp
 11a:	0100                	addi	s0,sp,128
 11c:	5800                	lw	s0,48(s0)
 11e:	0028                	addi	a0,sp,8
 120:	0000                	unimp
 122:	0032                	c.slli	zero,0xc
 124:	0000                	unimp
 126:	0001                	nop
}
 128:	3258                	fld	fa4,160(a2)
 12a:	0000                	unimp
  seed = (long int) new_seed;
 12c:	3a00                	fld	fs0,48(a2)
 12e:	0000                	unimp
}
 130:	0400                	addi	s0,sp,512
  heap_end = (void *) ((char *) heap_ptr + heap_size);
 132:	7a00                	flw	fs0,48(a2)
  heap_ptr = (void *) heap;
 134:	2000                	fld	fs0,0(s0)
 136:	009f 0000 0000      	0x9f
  heap_requested = 0;
 13c:	0000                	unimp
 13e:	a400                	fsd	fs0,8(s0)
}
 140:	0000                	unimp
  return ((void *) ((char *) heap + heap_requested) <= heap_end);
 142:	e600                	fsw	fs0,8(a2)
 144:	0000                	unimp
 146:	0100                	addi	s0,sp,128
 148:	5a00                	lw	s0,48(a2)
 14a:	00e6                	slli	ra,ra,0x19
 14c:	0000                	unimp
 14e:	00e8                	addi	a0,sp,76
 150:	0000                	unimp
 152:	0004                	0x4
}
 154:	9f5a01f3          	0x9f5a01f3
 158:	00e8                	addi	a0,sp,76
  heap_requested += size;
 15a:	0000                	unimp
 15c:	00ec                	addi	a1,sp,76
 15e:	0000                	unimp
  void *new_ptr = heap_ptr;
 160:	0001                	nop
 162:	005a                	c.slli	zero,0x16
 164:	0000                	unimp
  heap_requested += size;
 166:	0000                	unimp
 168:	0000                	unimp
 16a:	b000                	fsd	fs0,32(s0)
  if (((void *) ((char *) heap_ptr + size) > heap_end) || (0 == size))
 16c:	0000                	unimp
 16e:	e400                	fsw	fs0,8(s0)
 170:	0000                	unimp
 172:	0100                	addi	s0,sp,128
 174:	5f00                	lw	s0,56(a4)
 176:	00e8                	addi	a0,sp,76
 178:	0000                	unimp
 17a:	00ea                	slli	ra,ra,0x1a
      heap_ptr = (void *) ((char *) heap_ptr + size);
 17c:	0000                	unimp
 17e:	0001                	nop
}
 180:	ea5f 0000 ec00      	0xec000000ea5f
    return NULL;
 186:	0000                	unimp
  void *new_ptr = malloc_beebs (nmemb * size);
 188:	0500                	addi	s0,sp,640
 18a:	0300                	addi	s0,sp,384
{
 18c:	0784                	addi	s1,sp,960
	...
  void *new_ptr = malloc_beebs (nmemb * size);
 196:	0000                	unimp
 198:	00ce                	slli	ra,ra,0x13
  if (NULL != new_ptr)
 19a:	0000                	unimp
    memset (new_ptr, 0, nmemb * size);
 19c:	00e4                	addi	s1,sp,76
 19e:	0000                	unimp
 1a0:	0001                	nop
}
 1a2:	005e                	c.slli	zero,0x17
 1a4:	0000                	unimp
 1a6:	0000                	unimp
 1a8:	0000                	unimp
 1aa:	8000                	0x8000
  heap_requested += size;
 1ac:	0000                	unimp
 1ae:	8c00                	0x8c00
 1b0:	0000                	unimp
  void *new_ptr = heap_ptr;
 1b2:	0100                	addi	s0,sp,128
 1b4:	5a00                	lw	s0,48(a2)
 1b6:	008c                	addi	a1,sp,64
  heap_requested += size;
 1b8:	0000                	unimp
 1ba:	00a4                	addi	s1,sp,72
 1bc:	0000                	unimp
  if (((void *) ((char *) heap_ptr + size) > heap_end) || (0 == size))
 1be:	0004                	0x4
 1c0:	9f5a01f3          	0x9f5a01f3
	...
 1cc:	0080                	addi	s0,sp,64
      heap_ptr = (void *) ((char *) heap_ptr + size);
 1ce:	0000                	unimp
 1d0:	0000008f          	0x8f
	  for (i = 0; i < size; i++)
 1d4:	0001                	nop
	    ((char *) new_ptr)[i] = ((char *) ptr)[i];
 1d6:	00008f5b          	0x8f5b
 1da:	a400                	fsd	fs0,8(s0)
 1dc:	0000                	unimp
 1de:	0400                	addi	s0,sp,512
 1e0:	f300                	fsw	fs0,32(a4)
	  for (i = 0; i < size; i++)
 1e2:	5b01                	li	s6,-32
	    ((char *) new_ptr)[i] = ((char *) ptr)[i];
 1e4:	009f 0000 0000      	0x9f
	  for (i = 0; i < size; i++)
 1ea:	0000                	unimp
}
 1ec:	9200                	0x9200
 1ee:	0000                	unimp
    return NULL;
 1f0:	a000                	fsd	fs0,0(s0)
 1f2:	0000                	unimp
}
 1f4:	0100                	addi	s0,sp,128
  __asm__ volatile ("li a0, 0" : : : "memory");
 1f6:	5800                	lw	s0,48(s0)
}
 1f8:	00a0                	addi	s0,sp,72
  __asm__ volatile ("li a0, 0" : : : "memory");
 1fa:	0000                	unimp
}
 1fc:	00a4                	addi	s1,sp,72
  __asm__ volatile ("li a0, 0" : : : "memory");
 1fe:	0000                	unimp
}
 200:	0001                	nop
  jal x0, default_exc_handler
 202:	005a                	c.slli	zero,0x16
 204:	0000                	unimp
  mv  x1, x0
 206:	0000                	unimp
 208:	0000                	unimp
  mv  x2, x1
 20a:	5200                	lw	s0,32(a2)
  mv  x3, x1
 20c:	0000                	unimp
  mv  x4, x1
 20e:	7a00                	flw	fs0,48(a2)
  mv  x5, x1
 210:	0000                	unimp
  mv  x6, x1
 212:	0100                	addi	s0,sp,128
  mv  x7, x1
 214:	5a00                	lw	s0,48(a2)
  mv  x8, x1
 216:	007a                	c.slli	zero,0x1e
  mv  x9, x1
 218:	0000                	unimp
  mv x10, x1
 21a:	007c                	addi	a5,sp,12
  mv x11, x1
 21c:	0000                	unimp
  mv x12, x1
 21e:	0004                	0x4
  mv x13, x1
 220:	9f5a01f3          	0x9f5a01f3
  mv x15, x1
 224:	007c                	addi	a5,sp,12
  mv x16, x1
 226:	0000                	unimp
  mv x17, x1
 228:	0080                	addi	s0,sp,64
  mv x18, x1
 22a:	0000                	unimp
  mv x19, x1
 22c:	0001                	nop
  mv x20, x1
 22e:	005a                	c.slli	zero,0x16
  mv x21, x1
 230:	0000                	unimp
  mv x22, x1
 232:	0000                	unimp
  mv x23, x1
 234:	0000                	unimp
  mv x24, x1
 236:	5e00                	lw	s0,56(a2)
  mv x25, x1
 238:	0000                	unimp
  mv x26, x1
 23a:	7800                	flw	fs0,48(s0)
  mv x27, x1
 23c:	0000                	unimp
  mv x28, x1
 23e:	0100                	addi	s0,sp,128
  mv x29, x1
 240:	5f00                	lw	s0,56(a4)
  mv x30, x1
 242:	007c                	addi	a5,sp,12
  mv x31, x1
 244:	0000                	unimp
  la   x2, _stack_start
 246:	007e                	c.slli	zero,0x1f
 248:	0000                	unimp
 24a:	0001                	nop
 24c:	7e5f 0000 8000      	0x800000007e5f
  la x27, _bss_end
 252:	0000                	unimp
 254:	0500                	addi	s0,sp,640
  bge x26, x27, zero_loop_end
 256:	0300                	addi	s0,sp,384
 258:	0784                	addi	s1,sp,960
	...
  ble x26, x27, zero_loop
 262:	0000                	unimp
  addi x10, x0, 0
 264:	003a                	c.slli	zero,0xe
 266:	0000                	unimp
  addi x11, x0, 0
 268:	0042                	c.slli	zero,0x10
 26a:	0000                	unimp
  jal x1, main
 26c:	0001                	nop
 26e:	425a                	lw	tp,148(sp)
 270:	0000                	unimp
 272:	5200                	lw	s0,32(a2)
 274:	0000                	unimp
 276:	0400                	addi	s0,sp,512
 278:	f300                	fsw	fs0,32(a4)
 27a:	5a01                	li	s4,-32
 27c:	009f 0000 0000      	0x9f
 282:	0000                	unimp
 284:	2a00                	fld	fs0,16(a2)
 286:	0000                	unimp
 288:	2c00                	fld	fs0,24(s0)
 28a:	0000                	unimp
 28c:	0100                	addi	s0,sp,128
 28e:	5b00                	lw	s0,48(a4)
 290:	002c                	addi	a1,sp,8
 292:	0000                	unimp
 294:	003a                	c.slli	zero,0xe
 296:	0000                	unimp
 298:	0004                	0x4
 29a:	9f5b01f3          	0x9f5b01f3
	...
 2a6:	034c                	addi	a1,sp,388
 2a8:	0000                	unimp
 2aa:	0351                	addi	t1,t1,20
 2ac:	0000                	unimp
 2ae:	0001                	nop
 2b0:	515a                	lw	sp,180(sp)
 2b2:	6c000003          	lb	zero,1728(zero) # 6c0 <__DTOR_END__+0x344>
 2b6:	04000003          	lb	zero,64(zero) # 40 <__DYNAMIC+0x40>
 2ba:	f300                	fsw	fs0,32(a4)
 2bc:	5a01                	li	s4,-32
 2be:	009f 0000 0000      	0x9f
 2c4:	0000                	unimp
 2c6:	4c00                	lw	s0,24(s0)
 2c8:	51000003          	lb	zero,1296(zero) # 510 <__DTOR_END__+0x194>
 2cc:	01000003          	lb	zero,16(zero) # 10 <__DYNAMIC+0x10>
 2d0:	5b00                	lw	s0,48(a4)
 2d2:	0351                	addi	t1,t1,20
 2d4:	0000                	unimp
 2d6:	036c                	addi	a1,sp,396
 2d8:	0000                	unimp
 2da:	0004                	0x4
 2dc:	9f5b01f3          	0x9f5b01f3
	...

Disassembly of section .debug_aranges:

00000000 <.debug_aranges>:
  .endr
   0:	001c                	0x1c
   2:	0000                	unimp
   4:	0002                	c.slli64	zero
   6:	0000                	unimp
   8:	0000                	unimp
   a:	0004                	0x4
   c:	0000                	unimp
   e:	0000                	unimp
  10:	008c                	addi	a1,sp,64
  12:	0000                	unimp
  14:	007c                	addi	a5,sp,12
	...
  1e:	0000                	unimp
  20:	001c                	0x1c
  22:	0000                	unimp
  24:	0002                	c.slli64	zero
  26:	0ad8                	addi	a4,sp,340
  28:	0000                	unimp
  2a:	0004                	0x4
  2c:	0000                	unimp
  2e:	0000                	unimp
  30:	0108                	addi	a0,sp,128
  32:	0000                	unimp
  34:	00ee                	slli	ra,ra,0x1b
	...
  3e:	0000                	unimp
  40:	001c                	0x1c
  42:	0000                	unimp
  44:	0002                	c.slli64	zero
  46:	1625                	addi	a2,a2,-23
  48:	0000                	unimp
  4a:	0004                	0x4
  4c:	0000                	unimp
  4e:	0000                	unimp
  50:	01f6                	slli	gp,gp,0x1d
  52:	0000                	unimp
  54:	000c                	0xc
	...
  5e:	0000                	unimp
  60:	001c                	0x1c
  62:	0000                	unimp
  64:	0002                	c.slli64	zero
  66:	1681                	addi	a3,a3,-32
  68:	0000                	unimp
  6a:	0004                	0x4
  6c:	0000                	unimp
  6e:	0000                	unimp
  70:	034c                	addi	a1,sp,388
  72:	0000                	unimp
  74:	0020                	addi	s0,sp,8
	...
  jal x0, default_exc_handler
  7e:	0000                	unimp
  jal x0, reset_handler
  80:	0024                	addi	s1,sp,8
  82:	0000                	unimp
  jal x0, default_exc_handler
  84:	0002                	c.slli64	zero
  86:	17d1                	addi	a5,a5,-12
  jal x0, default_exc_handler
  88:	0000                	unimp
  8a:	0004                	0x4
{
  8c:	0000                	unimp
  8e:	0000                	unimp
  90:	0202                	c.slli64	tp
  92:	0000                	unimp
  94:	006e                	c.slli	zero,0x1b
  96:	0000                	unimp
  98:	0000                	unimp
  oldcrc32 = 0xFFFFFFFF;
  9a:	0000                	unimp
      oldcrc32 = UPDC32 (rand_beebs (), oldcrc32);
  9c:	008c                	addi	a1,sp,64
	...

Disassembly of section .debug_line:

00000000 <.debug_line>:
  .endr
   0:	0362                	slli	t1,t1,0x18
   2:	0000                	unimp
   4:	01de0003          	lb	zero,29(t3) # 601d <_stack_len+0x201d>
   8:	0000                	unimp
   a:	0101                	addi	sp,sp,0
   c:	000d0efb          	0xd0efb
  10:	0101                	addi	sp,sp,0
  12:	0101                	addi	sp,sp,0
  14:	0000                	unimp
  16:	0100                	addi	s0,sp,128
  18:	0000                	unimp
  1a:	2f01                	jal	72a <__DTOR_END__+0x3ae>
  1c:	6f68                	flw	fa0,92(a4)
  1e:	656d                	lui	a0,0x1b
  20:	2f43432f          	0x2f43432f
  24:	6262                	flw	ft4,24(sp)
  26:	7565                	lui	a0,0xffff9
  28:	72657473          	csrrci	s0,0x726,10
  2c:	7070412f          	0x7070412f
  30:	696c                	flw	fa1,84(a0)
  32:	69746163          	bltu	s0,s7,6b4 <__DTOR_END__+0x338>
  36:	2f736e6f          	jal	t3,36b2c <_stack_start+0x26b2c>
  3a:	6972                	flw	fs2,28(sp)
  3c:	36766373          	csrrsi	t1,0x367,12
  40:	2d34                	fld	fa3,88(a0)
  42:	6e75                	lui	t3,0x1d
  44:	776f6e6b          	0x776f6e6b
  48:	2d6e                	fld	fs10,216(sp)
  4a:	6c65                	lui	s8,0x19
  4c:	2d66                	fld	fs10,88(sp)
  4e:	2d636367          	0x2d636367
  52:	2e38                	fld	fa4,88(a2)
  54:	2d302e33          	0x2d302e33
  58:	3032                	fld	ft0,296(sp)
  5a:	3931                	jal	fffffc76 <_stack_start+0xfffefc76>
  5c:	302e                	fld	ft0,232(sp)
  5e:	2e38                	fld	fa4,88(a2)
  60:	2d30                	fld	fa2,88(a0)
  62:	3878                	fld	fa4,240(s0)
  64:	5f36                	lw	t5,108(sp)
  66:	3436                	fld	fs0,360(sp)
  68:	6c2d                	lui	s8,0xb
  6a:	6e69                	lui	t3,0x1a
  6c:	7875                	lui	a6,0xffffd
  6e:	632d                	lui	t1,0xb
  70:	6e65                	lui	t3,0x19
  72:	6f74                	flw	fa3,92(a4)
  74:	6c2f3673          	csrrc	a2,0x6c2,t5
  78:	6269                	lui	tp,0x1a
  7a:	6363672f          	0x6363672f
  jal x0, default_exc_handler
  7e:	7369722f          	0x7369722f
  jal x0, reset_handler
  82:	34367663          	bgeu	a2,gp,3ce <__DTOR_END__+0x52>
  jal x0, default_exc_handler
  86:	752d                	lui	a0,0xfffeb
  jal x0, default_exc_handler
  88:	6b6e                	flw	fs6,216(sp)
  8a:	6f6e                	flw	ft10,216(sp)
{
  8c:	652d6e77          	0x652d6e77
  90:	666c                	flw	fa1,76(a2)
  92:	332e382f          	0x332e382f
  96:	302e                	fld	ft0,232(sp)
  98:	636e692f          	0x636e692f
      oldcrc32 = UPDC32 (rand_beebs (), oldcrc32);
  9c:	756c                	flw	fa1,108(a0)
  9e:	6564                	flw	fs1,76(a0)
  a0:	2f00                	fld	fs0,24(a4)
  a2:	6f68                	flw	fa0,92(a4)
  a4:	656d                	lui	a0,0x1b
  a6:	2f43432f          	0x2f43432f
  aa:	6262                	flw	ft4,24(sp)
  ac:	7565                	lui	a0,0xffff9
  ae:	72657473          	csrrci	s0,0x726,10
  b2:	7070412f          	0x7070412f
}
  b6:	696c                	flw	fa1,84(a0)
  b8:	69746163          	bltu	s0,s7,73a <__DTOR_END__+0x3be>
  bc:	2f736e6f          	jal	t3,36bb2 <_stack_start+0x26bb2>
  c0:	6972                	flw	fs2,28(sp)
  c2:	36766373          	csrrsi	t1,0x367,12
{
  c6:	2d34                	fld	fa3,88(a0)
  c8:	6e75                	lui	t3,0x1d
  ca:	776f6e6b          	0x776f6e6b
  ce:	2d6e                	fld	fs10,216(sp)
  for (i = 0; i < rpt; i++)
  d0:	6c65                	lui	s8,0x19
  d2:	2d66                	fld	fs10,88(sp)
  d4:	2d636367          	0x2d636367
}
  d8:	2e38                	fld	fa4,88(a2)
  return (int) (r % 32768);
  da:	2d302e33          	0x2d302e33
}
  de:	3032                	fld	ft0,296(sp)
  e0:	3931                	jal	fffffcfc <_stack_start+0xfffefcfc>
  e2:	302e                	fld	ft0,232(sp)
  e4:	2e38                	fld	fa4,88(a2)
      srand_beebs (0);
  e6:	2d30                	fld	fa2,88(a0)
  e8:	3878                	fld	fa4,240(s0)
      r = crc32pseudo ();
  ea:	5f36                	lw	t5,108(sp)
  ec:	3436                	fld	fs0,360(sp)
  for (i = 0; i < rpt; i++)
  ee:	6c2d                	lui	s8,0xb
  f0:	6e69                	lui	t3,0x1a
}
  f2:	7875                	lui	a6,0xffffd
  int  res = benchmark_body (heat);
  f4:	632d                	lui	t1,0xb
  return benchmark_body (LOCAL_SCALE_FACTOR * CPU_MHZ);
  f6:	6e65                	lui	t3,0x19
  f8:	6f74                	flw	fa3,92(a4)
  return 11433 == r;
  fa:	722f3673          	csrrc	a2,0x722,t5
  fe:	7369                	lui	t1,0xffffa
 100:	34367663          	bgeu	a2,gp,44c <__DTOR_END__+0xd0>
}
 104:	752d                	lui	a0,0xfffeb
 106:	6b6e                	flw	fs6,216(sp)
  seed = (seed * 1103515245L + 12345) & ((1UL << 31) - 1);
 108:	6f6e                	flw	ft10,216(sp)
 10a:	652d6e77          	0x652d6e77
 10e:	666c                	flw	fa1,76(a2)
 110:	636e692f          	0x636e692f
 114:	756c                	flw	fa1,108(a0)
 116:	6564                	flw	fs1,76(a0)
 118:	7379732f          	0x7379732f
 11c:	2f00                	fld	fs0,24(a4)
 11e:	6f68                	flw	fa0,92(a4)
 120:	656d                	lui	a0,0x1b
 122:	2f43432f          	0x2f43432f
 126:	6262                	flw	ft4,24(sp)
}
 128:	7565                	lui	a0,0xffff9
 12a:	72657473          	csrrci	s0,0x726,10
  seed = (long int) new_seed;
 12e:	7070412f          	0x7070412f
  heap_end = (void *) ((char *) heap_ptr + heap_size);
 132:	696c                	flw	fa1,84(a0)
  heap_ptr = (void *) heap;
 134:	69746163          	bltu	s0,s7,7b6 <_bss_end+0x2a>
  heap_end = (void *) ((char *) heap_ptr + heap_size);
 138:	2f736e6f          	jal	t3,36c2e <_stack_start+0x26c2e>
  heap_requested = 0;
 13c:	6972                	flw	fs2,28(sp)
 13e:	36766373          	csrrsi	t1,0x367,12
  return ((void *) ((char *) heap + heap_requested) <= heap_end);
 142:	2d34                	fld	fa3,88(a0)
 144:	6e75                	lui	t3,0x1d
 146:	776f6e6b          	0x776f6e6b
 14a:	2d6e                	fld	fs10,216(sp)
 14c:	6c65                	lui	s8,0x19
 14e:	2d66                	fld	fs10,88(sp)
 150:	2d636367          	0x2d636367
}
 154:	2e38                	fld	fa4,88(a2)
 156:	2d302e33          	0x2d302e33
  heap_requested += size;
 15a:	3032                	fld	ft0,296(sp)
 15c:	3931                	jal	fffffd78 <_stack_start+0xfffefd78>
 15e:	302e                	fld	ft0,232(sp)
  void *new_ptr = heap_ptr;
 160:	2e38                	fld	fa4,88(a2)
 162:	2d30                	fld	fa2,88(a0)
 164:	3878                	fld	fa4,240(s0)
  heap_requested += size;
 166:	5f36                	lw	t5,108(sp)
 168:	3436                	fld	fs0,360(sp)
 16a:	6c2d                	lui	s8,0xb
  if (((void *) ((char *) heap_ptr + size) > heap_end) || (0 == size))
 16c:	6e69                	lui	t3,0x1a
 16e:	7875                	lui	a6,0xffffd
 170:	632d                	lui	t1,0xb
 172:	6e65                	lui	t3,0x19
 174:	6f74                	flw	fa3,92(a4)
 176:	722f3673          	csrrc	a2,0x722,t5
 17a:	7369                	lui	t1,0xffffa
      heap_ptr = (void *) ((char *) heap_ptr + size);
 17c:	34367663          	bgeu	a2,gp,4c8 <__DTOR_END__+0x14c>
}
 180:	752d                	lui	a0,0xfffeb
 182:	6b6e                	flw	fs6,216(sp)
    return NULL;
 184:	6f6e                	flw	ft10,216(sp)
 186:	652d6e77          	0x652d6e77
  void *new_ptr = malloc_beebs (nmemb * size);
 18a:	666c                	flw	fa1,76(a2)
{
 18c:	636e692f          	0x636e692f
 190:	756c                	flw	fa1,108(a0)
  void *new_ptr = malloc_beebs (nmemb * size);
 192:	6564                	flw	fs1,76(a0)
 194:	0000                	unimp
 196:	5f637263          	bgeu	t1,s6,77a <__DTOR_END__+0x3fe>
  if (NULL != new_ptr)
 19a:	632e3233          	0x632e3233
    memset (new_ptr, 0, nmemb * size);
 19e:	0000                	unimp
 1a0:	0000                	unimp
}
 1a2:	64647473          	csrrci	s0,0x646,8
 1a6:	6665                	lui	a2,0x19
 1a8:	682e                	flw	fa6,200(sp)
 1aa:	0100                	addi	s0,sp,128
  heap_requested += size;
 1ac:	0000                	unimp
 1ae:	745f 7079 7365      	0x73657079745f
  void *new_ptr = heap_ptr;
 1b4:	682e                	flw	fa6,200(sp)
 1b6:	0200                	addi	s0,sp,256
  heap_requested += size;
 1b8:	0000                	unimp
 1ba:	6572                	flw	fa0,28(sp)
 1bc:	6e65                	lui	t3,0x19
  if (((void *) ((char *) heap_ptr + size) > heap_end) || (0 == size))
 1be:	2e74                	fld	fa3,216(a2)
 1c0:	0068                	addi	a0,sp,12
 1c2:	0002                	c.slli64	zero
 1c4:	6c00                	flw	fs0,24(s0)
 1c6:	2e6b636f          	jal	t1,b64ac <_stack_start+0xa64ac>
 1ca:	0068                	addi	a0,sp,12
 1cc:	0002                	c.slli64	zero
      heap_ptr = (void *) ((char *) heap_ptr + size);
 1ce:	7300                	flw	fs0,32(a4)
 1d0:	6474                	flw	fa3,76(s0)
      if (NULL != ptr)
 1d2:	696c                	flw	fa1,84(a0)
	  for (i = 0; i < size; i++)
 1d4:	2e62                	fld	ft8,24(sp)
	    ((char *) new_ptr)[i] = ((char *) ptr)[i];
 1d6:	0068                	addi	a0,sp,12
 1d8:	62000003          	lb	zero,1568(zero) # 620 <__DTOR_END__+0x2a4>
 1dc:	6565                	lui	a0,0x19
 1de:	7362                	flw	ft6,56(sp)
 1e0:	00682e63          	0x682e63
 1e4:	0000                	unimp
 1e6:	0000                	unimp
	  for (i = 0; i < size; i++)
 1e8:	0105                	addi	sp,sp,1
 1ea:	0500                	addi	s0,sp,640
}
 1ec:	8c02                	jr	s8
 1ee:	0000                	unimp
    return NULL;
 1f0:	0300                	addi	s0,sp,384
 1f2:	0198                	addi	a4,sp,192
}
 1f4:	0501                	addi	a0,a0,0
  __asm__ volatile ("li a0, 0" : : : "memory");
 1f6:	09010303          	lb	t1,144(sp) # b0b03c2 <_stack_start+0xb0a03c2>
  __asm__ volatile ("li a0, 0" : : : "memory");
 1fa:	0000                	unimp
}
 1fc:	0301                	addi	t1,t1,0
  __asm__ volatile ("li a0, 0" : : : "memory");
 1fe:	0901                	addi	s2,s2,0
}
 200:	0000                	unimp
  jal x0, default_exc_handler
 202:	0301                	addi	t1,t1,0
 204:	0902                	c.slli64	s2
  mv  x1, x0
 206:	0000                	unimp
 208:	0301                	addi	t1,t1,0
  mv  x2, x1
 20a:	0902                	c.slli64	s2
  mv  x3, x1
 20c:	0000                	unimp
  mv  x4, x1
 20e:	0501                	addi	a0,a0,0
  mv  x5, x1
 210:	0601                	addi	a2,a2,0
  mv  x6, x1
 212:	00097a03          	0x97a03
  mv  x8, x1
 216:	0100                	addi	s0,sp,128
  mv  x9, x1
 218:	0a090003          	lb	zero,160(s2)
  mv x11, x1
 21c:	0100                	addi	s0,sp,128
  mv x12, x1
 21e:	0c05                	addi	s8,s8,1
  mv x13, x1
 220:	04090403          	lb	s0,64(s2)
  mv x15, x1
 224:	0100                	addi	s0,sp,128
  mv x16, x1
 226:	1205                	addi	tp,tp,-31
  mv x17, x1
 228:	02090403          	lb	s0,32(s2)
  mv x19, x1
 22c:	0100                	addi	s0,sp,128
  mv x20, x1
 22e:	0705                	addi	a4,a4,1
  mv x21, x1
 230:	0200                	addi	s0,sp,256
  mv x22, x1
 232:	0304                	addi	s1,sp,384
  mv x23, x1
 234:	0306                	slli	t1,t1,0x1
  mv x24, x1
 236:	0900                	addi	s0,sp,144
  mv x25, x1
 238:	0004                	0x4
  mv x26, x1
 23a:	0501                	addi	a0,a0,0
  mv x27, x1
 23c:	0012                	c.slli	zero,0x4
  mv x28, x1
 23e:	0402                	c.slli64	s0
  mv x29, x1
 240:	00030603          	lb	a2,0(t1) # ffffa000 <_stack_start+0xfffea000>
  mv x31, x1
 244:	0009                	c.nop	2
  la   x2, _stack_start
 246:	0100                	addi	s0,sp,128
 248:	1005                	c.nop	-31
 24a:	0200                	addi	s0,sp,256
 24c:	0304                	addi	s1,sp,384
  la x26, _bss_start
 24e:	12090003          	lb	zero,288(s2)
  la x27, _bss_end
 252:	0100                	addi	s0,sp,128
 254:	0305                	addi	t1,t1,1
  bge x26, x27, zero_loop_end
 256:	0200                	addi	s0,sp,256
 258:	0304                	addi	s1,sp,384
  sw x0, 0(x26)
 25a:	02097e03          	0x2097e03
  addi x26, x26, 4
 25e:	0100                	addi	s0,sp,128
  ble x26, x27, zero_loop
 260:	0306                	slli	t1,t1,0x1
 262:	0905                	addi	s2,s2,1
  addi x10, x0, 0
 264:	0002                	c.slli64	zero
 266:	0501                	addi	a0,a0,0
  addi x11, x0, 0
 268:	0601                	addi	a2,a2,0
 26a:	00090103          	lb	sp,0(s2)
  jal x1, main
 26e:	0100                	addi	s0,sp,128
 270:	0306                	slli	t1,t1,0x1
 272:	091c                	addi	a5,sp,144
 274:	0010                	0x10
 276:	0501                	addi	a0,a0,0
 278:	09010303          	lb	t1,144(sp)
 27c:	0000                	unimp
 27e:	0301                	addi	t1,t1,0
 280:	0901                	addi	s2,s2,0
 282:	0000                	unimp
 284:	0301                	addi	t1,t1,0
 286:	0902                	c.slli64	s2
 288:	0000                	unimp
 28a:	0501                	addi	a0,a0,0
 28c:	0601                	addi	a2,a2,0
 28e:	00097c03          	0x97c03
 292:	0100                	addi	s0,sp,128
 294:	08090003          	lb	zero,128(s2)
 298:	0100                	addi	s0,sp,128
 29a:	0a05                	addi	s4,s4,1
 29c:	02090403          	lb	s0,32(s2)
 2a0:	0100                	addi	s0,sp,128
 2a2:	0305                	addi	t1,t1,1
 2a4:	0200                	addi	s0,sp,256
 2a6:	0104                	addi	s1,sp,128
 2a8:	02090003          	lb	zero,32(s2)
 2ac:	0100                	addi	s0,sp,128
 2ae:	0306                	slli	t1,t1,0x1
 2b0:	0906                	slli	s2,s2,0x1
 2b2:	0004                	0x4
 2b4:	0501                	addi	a0,a0,0
 2b6:	0601                	addi	a2,a2,0
 2b8:	00090103          	lb	sp,0(s2)
 2bc:	0100                	addi	s0,sp,128
 2be:	0a05                	addi	s4,s4,1
 2c0:	04097f03          	0x4097f03
 2c4:	0100                	addi	s0,sp,128
 2c6:	0105                	addi	sp,sp,1
 2c8:	04090103          	lb	sp,64(s2)
 2cc:	0100                	addi	s0,sp,128
 2ce:	0705                	addi	a4,a4,1
 2d0:	0200                	addi	s0,sp,256
 2d2:	0304                	addi	s1,sp,384
 2d4:	0306                	slli	t1,t1,0x1
 2d6:	0008097b          	0x8097b
 2da:	0001                	nop
 2dc:	0402                	c.slli64	s0
 2de:	09010303          	lb	t1,144(sp)
 2e2:	0004                	0x4
 2e4:	0501                	addi	a0,a0,0
 2e6:	0402000b          	0x402000b
 2ea:	00030603          	lb	a2,0(t1)
 2ee:	0009                	c.nop	2
 2f0:	0100                	addi	s0,sp,128
 2f2:	1905                	addi	s2,s2,-31
 2f4:	0200                	addi	s0,sp,256
 2f6:	0304                	addi	s1,sp,384
 2f8:	04097d03          	0x4097d03
 2fc:	0100                	addi	s0,sp,128
 2fe:	0105                	addi	sp,sp,1
 300:	0306                	slli	t1,t1,0x1
 302:	0964                	addi	s1,sp,156
 304:	0004                	0x4
 306:	0301                	addi	t1,t1,0
 308:	0901                	addi	s2,s2,0
 30a:	0000                	unimp
 30c:	0301                	addi	t1,t1,0
 30e:	00020907          	0x20907
 312:	0501                	addi	a0,a0,0
 314:	09010303          	lb	t1,144(sp)
 318:	0000                	unimp
 31a:	0501                	addi	a0,a0,0
 31c:	060e                	slli	a2,a2,0x3
 31e:	00090003          	lb	zero,0(s2)
 322:	0100                	addi	s0,sp,128
 324:	0105                	addi	sp,sp,1
 326:	0306                	slli	t1,t1,0x1
 328:	0908                	addi	a0,sp,144
 32a:	0002                	c.slli64	zero
 32c:	0501                	addi	a0,a0,0
 32e:	09010303          	lb	t1,144(sp)
 332:	0000                	unimp
 334:	0501                	addi	a0,a0,0
 336:	060a                	slli	a2,a2,0x2
 338:	00090003          	lb	zero,0(s2)
 33c:	0100                	addi	s0,sp,128
 33e:	0105                	addi	sp,sp,1
 340:	0306                	slli	t1,t1,0x1
 342:	0916                	slli	s2,s2,0x5
 344:	0004                	0x4
 346:	0501                	addi	a0,a0,0
 348:	09010303          	lb	t1,144(sp)
{
 34c:	0000                	unimp
 34e:	0501                	addi	a0,a0,0
  initialise_board ();
 350:	0610                	addi	a2,sp,768
  initialise_benchmark ();
 352:	00090003          	lb	zero,0(s2)
  warm_caches (WARMUP_HEAT);
 356:	0100                	addi	s0,sp,128
  start_trigger ();
 358:	0105                	addi	sp,sp,1
  result = benchmark ();
 35a:	08090103          	lb	sp,128(s2)
  stop_trigger ();
 35e:	0100                	addi	s0,sp,128
  correct = verify_benchmark (result);
 360:	0609                	addi	a2,a2,2
 362:	0000                	unimp
 364:	0101                	addi	sp,sp,0
    asm("wfi");
 366:	042a                	slli	s0,s0,0xa
 368:	0000                	unimp
 36a:	015c0003          	lb	zero,21(s8) # b015 <_stack_len+0x7015>
 36e:	0000                	unimp
 370:	0101                	addi	sp,sp,0
 372:	000d0efb          	0xd0efb
 376:	0101                	addi	sp,sp,0
 378:	0101                	addi	sp,sp,0
 37a:	0000                	unimp
 37c:	0100                	addi	s0,sp,128
 37e:	0000                	unimp
 380:	2f01                	jal	a90 <_bss_end+0x304>
 382:	6f68                	flw	fa0,92(a4)
 384:	656d                	lui	a0,0x1b
 386:	2f43432f          	0x2f43432f
 38a:	6262                	flw	ft4,24(sp)
 38c:	7565                	lui	a0,0xffff9
 38e:	72657473          	csrrci	s0,0x726,10
 392:	7070412f          	0x7070412f
 396:	696c                	flw	fa1,84(a0)
 398:	69746163          	bltu	s0,s7,a1a <_bss_end+0x28e>
 39c:	2f736e6f          	jal	t3,36e92 <_stack_start+0x26e92>
 3a0:	6972                	flw	fs2,28(sp)
 3a2:	36766373          	csrrsi	t1,0x367,12
 3a6:	2d34                	fld	fa3,88(a0)
 3a8:	6e75                	lui	t3,0x1d
 3aa:	776f6e6b          	0x776f6e6b
 3ae:	2d6e                	fld	fs10,216(sp)
 3b0:	6c65                	lui	s8,0x19
 3b2:	2d66                	fld	fs10,88(sp)
 3b4:	2d636367          	0x2d636367
 3b8:	2e38                	fld	fa4,88(a2)
 3ba:	2d302e33          	0x2d302e33
 3be:	3032                	fld	ft0,296(sp)
 3c0:	3931                	jal	ffffffdc <_stack_start+0xfffeffdc>
 3c2:	302e                	fld	ft0,232(sp)
 3c4:	2e38                	fld	fa4,88(a2)
 3c6:	2d30                	fld	fa2,88(a0)
 3c8:	3878                	fld	fa4,240(s0)
 3ca:	5f36                	lw	t5,108(sp)
 3cc:	3436                	fld	fs0,360(sp)
 3ce:	6c2d                	lui	s8,0xb
 3d0:	6e69                	lui	t3,0x1a
 3d2:	7875                	lui	a6,0xffffd
 3d4:	632d                	lui	t1,0xb
 3d6:	6e65                	lui	t3,0x19
 3d8:	6f74                	flw	fa3,92(a4)
 3da:	6c2f3673          	csrrc	a2,0x6c2,t5
 3de:	6269                	lui	tp,0x1a
 3e0:	6363672f          	0x6363672f
 3e4:	7369722f          	0x7369722f
 3e8:	34367663          	bgeu	a2,gp,734 <__DTOR_END__+0x3b8>
 3ec:	752d                	lui	a0,0xfffeb
 3ee:	6b6e                	flw	fs6,216(sp)
 3f0:	6f6e                	flw	ft10,216(sp)
 3f2:	652d6e77          	0x652d6e77
 3f6:	666c                	flw	fa1,76(a2)
 3f8:	332e382f          	0x332e382f
 3fc:	302e                	fld	ft0,232(sp)
 3fe:	636e692f          	0x636e692f
 402:	756c                	flw	fa1,108(a0)
 404:	6564                	flw	fs1,76(a0)
 406:	2f00                	fld	fs0,24(a4)
 408:	6f68                	flw	fa0,92(a4)
 40a:	656d                	lui	a0,0x1b
 40c:	2f43432f          	0x2f43432f
 410:	6262                	flw	ft4,24(sp)
 412:	7565                	lui	a0,0xffff9
 414:	72657473          	csrrci	s0,0x726,10
 418:	7070412f          	0x7070412f
 41c:	696c                	flw	fa1,84(a0)
 41e:	69746163          	bltu	s0,s7,aa0 <_bss_end+0x314>
 422:	2f736e6f          	jal	t3,36f18 <_stack_start+0x26f18>
 426:	6972                	flw	fs2,28(sp)
 428:	36766373          	csrrsi	t1,0x367,12
 42c:	2d34                	fld	fa3,88(a0)
 42e:	6e75                	lui	t3,0x1d
 430:	776f6e6b          	0x776f6e6b
 434:	2d6e                	fld	fs10,216(sp)
 436:	6c65                	lui	s8,0x19
 438:	2d66                	fld	fs10,88(sp)
 43a:	2d636367          	0x2d636367
 43e:	2e38                	fld	fa4,88(a2)
 440:	2d302e33          	0x2d302e33
 444:	3032                	fld	ft0,296(sp)
 446:	3931                	jal	62 <__DYNAMIC+0x62>
 448:	302e                	fld	ft0,232(sp)
 44a:	2e38                	fld	fa4,88(a2)
 44c:	2d30                	fld	fa2,88(a0)
 44e:	3878                	fld	fa4,240(s0)
 450:	5f36                	lw	t5,108(sp)
 452:	3436                	fld	fs0,360(sp)
 454:	6c2d                	lui	s8,0xb
 456:	6e69                	lui	t3,0x1a
 458:	7875                	lui	a6,0xffffd
 45a:	632d                	lui	t1,0xb
 45c:	6e65                	lui	t3,0x19
 45e:	6f74                	flw	fa3,92(a4)
 460:	722f3673          	csrrc	a2,0x722,t5
 464:	7369                	lui	t1,0xffffa
 466:	34367663          	bgeu	a2,gp,7b2 <_bss_end+0x26>
 46a:	752d                	lui	a0,0xfffeb
 46c:	6b6e                	flw	fs6,216(sp)
 46e:	6f6e                	flw	ft10,216(sp)
 470:	652d6e77          	0x652d6e77
 474:	666c                	flw	fa1,76(a2)
 476:	636e692f          	0x636e692f
 47a:	756c                	flw	fa1,108(a0)
 47c:	6564                	flw	fs1,76(a0)
 47e:	7379732f          	0x7379732f
 482:	0000                	unimp
 484:	6562                	flw	fa0,24(sp)
 486:	6265                	lui	tp,0x19
 488:	632e6373          	csrrsi	t1,0x632,28
 48c:	0000                	unimp
 48e:	0000                	unimp
 490:	64647473          	csrrci	s0,0x646,8
 494:	6665                	lui	a2,0x19
 496:	682e                	flw	fa6,200(sp)
 498:	0100                	addi	s0,sp,128
 49a:	0000                	unimp
 49c:	745f 7079 7365      	0x73657079745f
 4a2:	682e                	flw	fa6,200(sp)
 4a4:	0200                	addi	s0,sp,256
 4a6:	0000                	unimp
 4a8:	6572                	flw	fa0,28(sp)
 4aa:	6e65                	lui	t3,0x19
 4ac:	2e74                	fld	fa3,216(a2)
 4ae:	0068                	addi	a0,sp,12
 4b0:	0002                	c.slli64	zero
 4b2:	6c00                	flw	fs0,24(s0)
 4b4:	2e6b636f          	jal	t1,b679a <_stack_start+0xa679a>
 4b8:	0068                	addi	a0,sp,12
 4ba:	0002                	c.slli64	zero
 4bc:	3c00                	fld	fs0,56(s0)
 4be:	7562                	flw	fa0,56(sp)
 4c0:	6c69                	lui	s8,0x1a
 4c2:	2d74                	fld	fa3,216(a0)
 4c4:	6e69                	lui	t3,0x1a
 4c6:	003e                	c.slli	zero,0xf
 4c8:	0000                	unimp
 4ca:	0000                	unimp
 4cc:	0105                	addi	sp,sp,1
 4ce:	0500                	addi	s0,sp,640
 4d0:	0802                	c.slli64	a6
 4d2:	0001                	nop
 4d4:	0300                	addi	s0,sp,384
 4d6:	0129                	addi	sp,sp,10
 4d8:	0305                	addi	t1,t1,1
 4da:	00090103          	lb	sp,0(s2)
 4de:	0100                	addi	s0,sp,128
 4e0:	1005                	c.nop	-31
 4e2:	0306                	slli	t1,t1,0x1
 4e4:	0900                	addi	s0,sp,144
 4e6:	0000                	unimp
 4e8:	0501                	addi	a0,a0,0
 4ea:	031e                	slli	t1,t1,0x7
 4ec:	0900                	addi	s0,sp,144
 4ee:	0012                	c.slli	zero,0x4
 4f0:	0501                	addi	a0,a0,0
 4f2:	09000327          	0x9000327
 4f6:	0008                	0x8
 4f8:	0501                	addi	a0,a0,0
 4fa:	0308                	addi	a0,sp,384
 4fc:	0900                	addi	s0,sp,144
 4fe:	0004                	0x4
 500:	0501                	addi	a0,a0,0
 502:	01030603          	lb	a2,16(t1) # ffffa010 <_stack_start+0xfffea010>
 506:	0209                	addi	tp,tp,2
 508:	0100                	addi	s0,sp,128
 50a:	0105                	addi	sp,sp,1
 50c:	0306                	slli	t1,t1,0x1
 50e:	0901                	addi	s2,s2,0
 510:	0000                	unimp
 512:	0601                	addi	a2,a2,0
 514:	04090703          	lb	a4,64(s2)
 518:	0100                	addi	s0,sp,128
 51a:	0305                	addi	t1,t1,1
 51c:	00090103          	lb	sp,0(s2)
 520:	0100                	addi	s0,sp,128
 522:	0805                	addi	a6,a6,1
 524:	0306                	slli	t1,t1,0x1
 526:	0900                	addi	s0,sp,144
 528:	0000                	unimp
 52a:	0501                	addi	a0,a0,0
 52c:	0301                	addi	t1,t1,0
 52e:	0901                	addi	s2,s2,0
 530:	0004                	0x4
 532:	0601                	addi	a2,a2,0
 534:	02090803          	lb	a6,32(s2)
 538:	0100                	addi	s0,sp,128
 53a:	0305                	addi	t1,t1,1
 53c:	00090103          	lb	sp,0(s2)
 540:	0100                	addi	s0,sp,128
 542:	0e05                	addi	t3,t3,1
 544:	0306                	slli	t1,t1,0x1
 546:	0901                	addi	s2,s2,0
 548:	0000                	unimp
 54a:	0501                	addi	a0,a0,0
 54c:	030c                	addi	a1,sp,384
 54e:	097f                	0x97f
 550:	0002                	c.slli64	zero
 552:	0501                	addi	a0,a0,0
 554:	01030603          	lb	a2,16(t1)
 558:	0409                	addi	s0,s0,2
 55a:	0100                	addi	s0,sp,128
 55c:	0c05                	addi	s8,s8,1
 55e:	0306                	slli	t1,t1,0x1
 560:	0900                	addi	s0,sp,144
 562:	0000                	unimp
 564:	0501                	addi	a0,a0,0
 566:	01030603          	lb	a2,16(t1)
 56a:	0409                	addi	s0,s0,2
 56c:	0100                	addi	s0,sp,128
 56e:	1205                	addi	tp,tp,-31
 570:	0306                	slli	t1,t1,0x1
 572:	0900                	addi	s0,sp,144
 574:	0000                	unimp
 576:	0501                	addi	a0,a0,0
 578:	0301                	addi	t1,t1,0
 57a:	0901                	addi	s2,s2,0
 57c:	0004                	0x4
 57e:	0601                	addi	a2,a2,0
 580:	02090a03          	lb	s4,32(s2)
 584:	0100                	addi	s0,sp,128
 586:	0305                	addi	t1,t1,1
 588:	00090103          	lb	sp,0(s2)
 58c:	0100                	addi	s0,sp,128
 58e:	0b05                	addi	s6,s6,1
 590:	0306                	slli	t1,t1,0x1
 592:	0900                	addi	s0,sp,144
 594:	0000                	unimp
 596:	0501                	addi	a0,a0,0
 598:	0335                	addi	t1,t1,13
 59a:	0900                	addi	s0,sp,144
 59c:	0008                	0x8
 59e:	0501                	addi	a0,a0,0
 5a0:	0301                	addi	t1,t1,0
 5a2:	0901                	addi	s2,s2,0
 5a4:	000a                	c.slli	zero,0x2
 5a6:	0601                	addi	a2,a2,0
 5a8:	06090e03          	lb	t3,96(s2)
 5ac:	0100                	addi	s0,sp,128
 5ae:	0305                	addi	t1,t1,1
 5b0:	00090103          	lb	sp,0(s2)
 5b4:	0100                	addi	s0,sp,128
 5b6:	1205                	addi	tp,tp,-31
 5b8:	0306                	slli	t1,t1,0x1
 5ba:	0902                	c.slli64	s2
 5bc:	0000                	unimp
 5be:	0501                	addi	a0,a0,0
 5c0:	0309                	addi	t1,t1,2
 5c2:	097e                	slli	s2,s2,0x1f
 5c4:	0006                	c.slli	zero,0x1
 5c6:	0501                	addi	a0,a0,0
 5c8:	02030603          	lb	a2,32(t1)
 5cc:	0609                	addi	a2,a2,2
 5ce:	0100                	addi	s0,sp,128
 5d0:	1205                	addi	tp,tp,-31
 5d2:	0306                	slli	t1,t1,0x1
 5d4:	0900                	addi	s0,sp,144
 5d6:	0000                	unimp
 5d8:	0501                	addi	a0,a0,0
 5da:	02030603          	lb	a2,32(t1)
 5de:	0609                	addi	a2,a2,2
 5e0:	0100                	addi	s0,sp,128
 5e2:	2c05                	jal	812 <_bss_end+0x86>
 5e4:	0306                	slli	t1,t1,0x1
 5e6:	0900                	addi	s0,sp,144
 5e8:	0000                	unimp
 5ea:	0501                	addi	a0,a0,0
 5ec:	0306                	slli	t1,t1,0x1
 5ee:	0900                	addi	s0,sp,144
 5f0:	0004                	0x4
 5f2:	0501                	addi	a0,a0,0
 5f4:	0308                	addi	a0,sp,384
 5f6:	0900                	addi	s0,sp,144
 5f8:	0002                	c.slli64	zero
 5fa:	0501                	addi	a0,a0,0
 5fc:	0306                	slli	t1,t1,0x1
 5fe:	0900                	addi	s0,sp,144
 600:	0004                	0x4
 602:	0501                	addi	a0,a0,0
 604:	0038                	addi	a4,sp,8
 606:	0402                	c.slli64	s0
 608:	0301                	addi	t1,t1,0
 60a:	0900                	addi	s0,sp,144
 60c:	0004                	0x4
 60e:	0501                	addi	a0,a0,0
 610:	04030607          	0x4030607
 614:	0209                	addi	tp,tp,2
 616:	0100                	addi	s0,sp,128
 618:	1005                	c.nop	-31
 61a:	0306                	slli	t1,t1,0x1
 61c:	0900                	addi	s0,sp,144
 61e:	0000                	unimp
 620:	0501                	addi	a0,a0,0
 622:	01030607          	0x1030607
 626:	0409                	addi	s0,s0,2
 628:	0100                	addi	s0,sp,128
 62a:	0105                	addi	sp,sp,1
 62c:	0306                	slli	t1,t1,0x1
 62e:	0902                	c.slli64	s2
 630:	0000                	unimp
 632:	0501                	addi	a0,a0,0
 634:	030c                	addi	a1,sp,384
 636:	097a                	slli	s2,s2,0x1e
 638:	0004                	0x4
 63a:	0501                	addi	a0,a0,0
 63c:	0601                	addi	a2,a2,0
 63e:	04090f03          	lb	t5,64(s2)
 642:	0100                	addi	s0,sp,128
 644:	0305                	addi	t1,t1,1
 646:	00090103          	lb	sp,0(s2)
 64a:	0100                	addi	s0,sp,128
 64c:	1305                	addi	t1,t1,-31
 64e:	0306                	slli	t1,t1,0x1
 650:	0900                	addi	s0,sp,144
 652:	0000                	unimp
 654:	0501                	addi	a0,a0,0
 656:	0301                	addi	t1,t1,0
 658:	097f                	0x97f
 65a:	0004                	0x4
 65c:	0501                	addi	a0,a0,0
 65e:	09010313          	addi	t1,sp,144
 662:	0006                	c.slli	zero,0x1
 664:	0501                	addi	a0,a0,0
 666:	05030603          	lb	a2,80(t1)
 66a:	0809                	addi	a6,a6,2
 66c:	0100                	addi	s0,sp,128
 66e:	0605                	addi	a2,a2,1
 670:	0306                	slli	t1,t1,0x1
 672:	0900                	addi	s0,sp,144
 674:	0000                	unimp
 676:	0501                	addi	a0,a0,0
 678:	0605                	addi	a2,a2,1
 67a:	02090103          	lb	sp,32(s2)
 67e:	0100                	addi	s0,sp,128
 680:	0305                	addi	t1,t1,1
 682:	06090203          	lb	tp,96(s2)
 686:	0100                	addi	s0,sp,128
 688:	0105                	addi	sp,sp,1
 68a:	0306                	slli	t1,t1,0x1
 68c:	0901                	addi	s2,s2,0
 68e:	0000                	unimp
 690:	0601                	addi	a2,a2,0
 692:	0a090a03          	lb	s4,160(s2)
 696:	0100                	addi	s0,sp,128
 698:	0305                	addi	t1,t1,1
 69a:	00090103          	lb	sp,0(s2)
 69e:	0100                	addi	s0,sp,128
 6a0:	1205                	addi	tp,tp,-31
 6a2:	0306                	slli	t1,t1,0x1
 6a4:	0902                	c.slli64	s2
 6a6:	0000                	unimp
 6a8:	0501                	addi	a0,a0,0
 6aa:	0309                	addi	t1,t1,2
 6ac:	097e                	slli	s2,s2,0x1f
 6ae:	0006                	c.slli	zero,0x1
 6b0:	0501                	addi	a0,a0,0
 6b2:	02030603          	lb	a2,32(t1)
 6b6:	0609                	addi	a2,a2,2
 6b8:	0100                	addi	s0,sp,128
 6ba:	1205                	addi	tp,tp,-31
 6bc:	0306                	slli	t1,t1,0x1
 6be:	0900                	addi	s0,sp,144
 6c0:	0000                	unimp
 6c2:	0501                	addi	a0,a0,0
 6c4:	02030603          	lb	a2,32(t1)
 6c8:	0609                	addi	a2,a2,2
 6ca:	0100                	addi	s0,sp,128
 6cc:	2c05                	jal	8fc <_bss_end+0x170>
 6ce:	0306                	slli	t1,t1,0x1
 6d0:	0900                	addi	s0,sp,144
 6d2:	0000                	unimp
 6d4:	0501                	addi	a0,a0,0
 6d6:	0306                	slli	t1,t1,0x1
 6d8:	0900                	addi	s0,sp,144
 6da:	0004                	0x4
 6dc:	0501                	addi	a0,a0,0
 6de:	0308                	addi	a0,sp,384
 6e0:	0900                	addi	s0,sp,144
 6e2:	0002                	c.slli64	zero
 6e4:	0501                	addi	a0,a0,0
 6e6:	0306                	slli	t1,t1,0x1
 6e8:	0900                	addi	s0,sp,144
 6ea:	0004                	0x4
 6ec:	0501                	addi	a0,a0,0
 6ee:	0038                	addi	a4,sp,8
 6f0:	0402                	c.slli64	s0
 6f2:	0301                	addi	t1,t1,0
 6f4:	0900                	addi	s0,sp,144
 6f6:	0004                	0x4
 6f8:	0501                	addi	a0,a0,0
 6fa:	04030607          	0x4030607
 6fe:	0209                	addi	tp,tp,2
 700:	0100                	addi	s0,sp,128
 702:	1005                	c.nop	-31
 704:	0306                	slli	t1,t1,0x1
 706:	0900                	addi	s0,sp,144
 708:	0000                	unimp
 70a:	0501                	addi	a0,a0,0
 70c:	07030607          	0x7030607
 710:	0409                	addi	s0,s0,2
 712:	0100                	addi	s0,sp,128
 714:	0a05                	addi	s4,s4,1
 716:	0306                	slli	t1,t1,0x1
 718:	0900                	addi	s0,sp,144
 71a:	0000                	unimp
 71c:	0501                	addi	a0,a0,0
 71e:	0904030b          	0x904030b
 722:	0002                	c.slli64	zero
 724:	0501                	addi	a0,a0,0
 726:	0006                	c.slli	zero,0x1
 728:	0402                	c.slli64	s0
 72a:	01030603          	lb	a2,16(t1)
 72e:	0209                	addi	tp,tp,2
 730:	0100                	addi	s0,sp,128
 732:	2c05                	jal	962 <_bss_end+0x1d6>
 734:	0200                	addi	s0,sp,256
 736:	0304                	addi	s1,sp,384
 738:	0306                	slli	t1,t1,0x1
 73a:	0900                	addi	s0,sp,144
 73c:	0000                	unimp
 73e:	0501                	addi	a0,a0,0
 740:	001c                	0x1c
 742:	0402                	c.slli64	s0
 744:	09000303          	lb	t1,144(zero) # 90 <crc32pseudo+0x4>
 748:	0008                	0x8
 74a:	0501                	addi	a0,a0,0
 74c:	0402001b          	0x402001b
 750:	097f0303          	lb	t1,151(t5) # 4423f <_stack_start+0x3423f>
 754:	0004                	0x4
 756:	0501                	addi	a0,a0,0
 758:	001c                	0x1c
 75a:	0402                	c.slli64	s0
 75c:	09010303          	lb	t1,144(sp)
 760:	0002                	c.slli64	zero
 762:	0501                	addi	a0,a0,0
 764:	0004                	0x4
 766:	0402                	c.slli64	s0
 768:	097f0303          	lb	t1,151(t5)
 76c:	0004                	0x4
 76e:	0501                	addi	a0,a0,0
 770:	0301                	addi	t1,t1,0
 772:	0906                	slli	s2,s2,0x1
 774:	0004                	0x4
 776:	0501                	addi	a0,a0,0
 778:	030c                	addi	a1,sp,384
 77a:	096c                	addi	a1,sp,156
 77c:	0004                	0x4
 77e:	0501                	addi	a0,a0,0
 780:	0601                	addi	a2,a2,0
 782:	04091d03          	lh	s10,64(s2)
 786:	0100                	addi	s0,sp,128
 788:	00090103          	lb	sp,0(s2)
 78c:	0100                	addi	s0,sp,128
 78e:	0209                	addi	tp,tp,2
 790:	0000                	unimp
 792:	0101                	addi	sp,sp,0
 794:	007e                	c.slli	zero,0x1f
 796:	0000                	unimp
 798:	00250003          	lb	zero,2(a0) # fffeb002 <_stack_start+0xfffdb002>
 79c:	0000                	unimp
 79e:	0101                	addi	sp,sp,0
 7a0:	000d0efb          	0xd0efb
 7a4:	0101                	addi	sp,sp,0
 7a6:	0101                	addi	sp,sp,0
 7a8:	0000                	unimp
 7aa:	0100                	addi	s0,sp,128
 7ac:	0000                	unimp
 7ae:	0001                	nop
 7b0:	6f62                	flw	ft10,24(sp)
 7b2:	7261                	lui	tp,0xffff8
 7b4:	7364                	flw	fs1,100(a4)
 7b6:	7075                	c.lui	zero,0xffffd
 7b8:	6f70                	flw	fa2,92(a4)
 7ba:	7472                	flw	fs0,60(sp)
 7bc:	632e                	flw	ft6,200(sp)
 7be:	0000                	unimp
 7c0:	0000                	unimp
 7c2:	0500                	addi	s0,sp,640
 7c4:	0001                	nop
 7c6:	0205                	addi	tp,tp,1
 7c8:	01f6                	slli	gp,gp,0x1d
 7ca:	0000                	unimp
 7cc:	05010d03          	lb	s10,80(sp)
 7d0:	09010303          	lb	t1,144(sp)
 7d4:	0000                	unimp
 7d6:	0501                	addi	a0,a0,0
 7d8:	0601                	addi	a2,a2,0
 7da:	02090103          	lb	sp,32(s2)
 7de:	0100                	addi	s0,sp,128
 7e0:	0306                	slli	t1,t1,0x1
 7e2:	0904                	addi	s1,sp,144
 7e4:	0002                	c.slli64	zero
 7e6:	0501                	addi	a0,a0,0
 7e8:	09010303          	lb	t1,144(sp)
 7ec:	0000                	unimp
 7ee:	0501                	addi	a0,a0,0
 7f0:	0601                	addi	a2,a2,0
 7f2:	02090103          	lb	sp,32(s2)
 7f6:	0100                	addi	s0,sp,128
 7f8:	0306                	slli	t1,t1,0x1
 7fa:	0904                	addi	s1,sp,144
 7fc:	0002                	c.slli64	zero
 7fe:	0501                	addi	a0,a0,0
 800:	09010303          	lb	t1,144(sp)
 804:	0000                	unimp
 806:	0501                	addi	a0,a0,0
 808:	0601                	addi	a2,a2,0
 80a:	02090103          	lb	sp,32(s2)
 80e:	0100                	addi	s0,sp,128
 810:	0209                	addi	tp,tp,2
 812:	0000                	unimp
 814:	0101                	addi	sp,sp,0
 816:	00ca                	slli	ra,ra,0x12
 818:	0000                	unimp
 81a:	002a0003          	lb	zero,2(s4)
 81e:	0000                	unimp
 820:	0101                	addi	sp,sp,0
 822:	000d0efb          	0xd0efb
 826:	0101                	addi	sp,sp,0
 828:	0101                	addi	sp,sp,0
 82a:	0000                	unimp
 82c:	0100                	addi	s0,sp,128
 82e:	0000                	unimp
 830:	0001                	nop
 832:	616d                	addi	sp,sp,240
 834:	6e69                	lui	t3,0x1a
 836:	632e                	flw	ft6,200(sp)
 838:	0000                	unimp
 83a:	0000                	unimp
 83c:	70707573          	csrrci	a0,0x707,0
 840:	2e74726f          	jal	tp,48326 <_stack_start+0x38326>
 844:	0068                	addi	a0,sp,12
 846:	0000                	unimp
 848:	0000                	unimp
 84a:	0105                	addi	sp,sp,1
 84c:	0500                	addi	s0,sp,640
 84e:	4c02                	lw	s8,0(sp)
 850:	03000003          	lb	zero,48(zero) # 30 <__DYNAMIC+0x30>
 854:	03050113          	addi	sp,a0,48
 858:	00090103          	lb	sp,0(s2)
 85c:	0100                	addi	s0,sp,128
 85e:	00090103          	lb	sp,0(s2)
 862:	0100                	addi	s0,sp,128
 864:	00090203          	lb	tp,0(s2)
 868:	0100                	addi	s0,sp,128
 86a:	0105                	addi	sp,sp,1
 86c:	0306                	slli	t1,t1,0x1
 86e:	097c                	addi	a5,sp,156
 870:	0000                	unimp
 872:	0501                	addi	a0,a0,0
 874:	09040303          	lb	t1,144(s0) # fffe7090 <_stack_start+0xfffd7090>
 878:	0004                	0x4
 87a:	0601                	addi	a2,a2,0
 87c:	02090103          	lb	sp,32(s2)
 880:	0100                	addi	s0,sp,128
 882:	02090103          	lb	sp,32(s2)
 886:	0100                	addi	s0,sp,128
 888:	04090203          	lb	tp,64(s2)
 88c:	0100                	addi	s0,sp,128
 88e:	02090103          	lb	sp,32(s2)
 892:	0100                	addi	s0,sp,128
 894:	0c05                	addi	s8,s8,1
 896:	0306                	slli	t1,t1,0x1
 898:	0900                	addi	s0,sp,144
 89a:	0000                	unimp
 89c:	0501                	addi	a0,a0,0
 89e:	030a                	slli	t1,t1,0x2
 8a0:	0900                	addi	s0,sp,144
 8a2:	0002                	c.slli64	zero
 8a4:	0501                	addi	a0,a0,0
 8a6:	01030603          	lb	a2,16(t1)
 8aa:	0209                	addi	tp,tp,2
 8ac:	0100                	addi	s0,sp,128
 8ae:	02090403          	lb	s0,32(s2)
 8b2:	0100                	addi	s0,sp,128
 8b4:	0d05                	addi	s10,s10,1
 8b6:	0306                	slli	t1,t1,0x1
 8b8:	0900                	addi	s0,sp,144
 8ba:	0000                	unimp
 8bc:	0501                	addi	a0,a0,0
 8be:	0900030b          	0x900030b
 8c2:	0004                	0x4
 8c4:	0501                	addi	a0,a0,0
 8c6:	04020003          	lb	zero,64(tp) # ffff8040 <_stack_start+0xfffe8040>
 8ca:	0601                	addi	a2,a2,0
 8cc:	02090303          	lb	t1,32(s2)
 8d0:	0100                	addi	s0,sp,128
 8d2:	0505                	addi	a0,a0,1
 8d4:	0200                	addi	s0,sp,256
 8d6:	0104                	addi	s1,sp,128
 8d8:	00090103          	lb	sp,0(s2)
 8dc:	0100                	addi	s0,sp,128
 8de:	0609                	addi	a2,a2,2
 8e0:	0000                	unimp
 8e2:	0101                	addi	sp,sp,0
 8e4:	0150                	addi	a2,sp,132
 8e6:	0000                	unimp
 8e8:	001d0003          	lb	zero,1(s10) # 3000407 <_stack_start+0x2ff0407>
 8ec:	0000                	unimp
 8ee:	0101                	addi	sp,sp,0
 8f0:	000d0efb          	0xd0efb
 8f4:	0101                	addi	sp,sp,0
 8f6:	0101                	addi	sp,sp,0
 8f8:	0000                	unimp
 8fa:	0100                	addi	s0,sp,128
 8fc:	0000                	unimp
 8fe:	0001                	nop
 900:	30747263          	bgeu	s0,t2,c04 <_bss_end+0x478>
 904:	532e                	lw	t1,232(sp)
 906:	0000                	unimp
 908:	0000                	unimp
 90a:	0000                	unimp
 90c:	0205                	addi	tp,tp,1
 90e:	0202                	c.slli64	tp
 910:	0000                	unimp
 912:	0315                	addi	t1,t1,5
 914:	0904                	addi	s1,sp,144
 916:	0004                	0x4
 918:	0301                	addi	t1,t1,0
 91a:	0901                	addi	s2,s2,0
 91c:	0004                	0x4
 91e:	0301                	addi	t1,t1,0
 920:	0901                	addi	s2,s2,0
 922:	0002                	c.slli64	zero
 924:	0301                	addi	t1,t1,0
 926:	0901                	addi	s2,s2,0
 928:	0002                	c.slli64	zero
 92a:	0301                	addi	t1,t1,0
 92c:	0901                	addi	s2,s2,0
 92e:	0002                	c.slli64	zero
 930:	0301                	addi	t1,t1,0
 932:	0901                	addi	s2,s2,0
 934:	0002                	c.slli64	zero
 936:	0301                	addi	t1,t1,0
 938:	0901                	addi	s2,s2,0
 93a:	0002                	c.slli64	zero
 93c:	0301                	addi	t1,t1,0
 93e:	0901                	addi	s2,s2,0
 940:	0002                	c.slli64	zero
 942:	0301                	addi	t1,t1,0
 944:	0901                	addi	s2,s2,0
 946:	0002                	c.slli64	zero
 948:	0301                	addi	t1,t1,0
 94a:	0901                	addi	s2,s2,0
 94c:	0002                	c.slli64	zero
 94e:	0301                	addi	t1,t1,0
 950:	0901                	addi	s2,s2,0
 952:	0002                	c.slli64	zero
 954:	0301                	addi	t1,t1,0
 956:	0901                	addi	s2,s2,0
 958:	0002                	c.slli64	zero
 95a:	0301                	addi	t1,t1,0
 95c:	0901                	addi	s2,s2,0
 95e:	0002                	c.slli64	zero
 960:	0301                	addi	t1,t1,0
 962:	0901                	addi	s2,s2,0
 964:	0002                	c.slli64	zero
 966:	0301                	addi	t1,t1,0
 968:	0901                	addi	s2,s2,0
 96a:	0002                	c.slli64	zero
 96c:	0301                	addi	t1,t1,0
 96e:	0901                	addi	s2,s2,0
 970:	0002                	c.slli64	zero
 972:	0301                	addi	t1,t1,0
 974:	0901                	addi	s2,s2,0
 976:	0002                	c.slli64	zero
 978:	0301                	addi	t1,t1,0
 97a:	0901                	addi	s2,s2,0
 97c:	0002                	c.slli64	zero
 97e:	0301                	addi	t1,t1,0
 980:	0901                	addi	s2,s2,0
 982:	0002                	c.slli64	zero
 984:	0301                	addi	t1,t1,0
 986:	0901                	addi	s2,s2,0
 988:	0002                	c.slli64	zero
 98a:	0301                	addi	t1,t1,0
 98c:	0901                	addi	s2,s2,0
 98e:	0002                	c.slli64	zero
 990:	0301                	addi	t1,t1,0
 992:	0901                	addi	s2,s2,0
 994:	0002                	c.slli64	zero
 996:	0301                	addi	t1,t1,0
 998:	0901                	addi	s2,s2,0
 99a:	0002                	c.slli64	zero
 99c:	0301                	addi	t1,t1,0
 99e:	0901                	addi	s2,s2,0
 9a0:	0002                	c.slli64	zero
 9a2:	0301                	addi	t1,t1,0
 9a4:	0901                	addi	s2,s2,0
 9a6:	0002                	c.slli64	zero
 9a8:	0301                	addi	t1,t1,0
 9aa:	0901                	addi	s2,s2,0
 9ac:	0002                	c.slli64	zero
 9ae:	0301                	addi	t1,t1,0
 9b0:	0901                	addi	s2,s2,0
 9b2:	0002                	c.slli64	zero
 9b4:	0301                	addi	t1,t1,0
 9b6:	0901                	addi	s2,s2,0
 9b8:	0002                	c.slli64	zero
 9ba:	0301                	addi	t1,t1,0
 9bc:	0901                	addi	s2,s2,0
 9be:	0002                	c.slli64	zero
 9c0:	0301                	addi	t1,t1,0
 9c2:	0901                	addi	s2,s2,0
 9c4:	0002                	c.slli64	zero
 9c6:	0301                	addi	t1,t1,0
 9c8:	0901                	addi	s2,s2,0
 9ca:	0002                	c.slli64	zero
 9cc:	0301                	addi	t1,t1,0
 9ce:	00020903          	lb	s2,0(tp) # 0 <__DYNAMIC>
 9d2:	0301                	addi	t1,t1,0
 9d4:	0906                	slli	s2,s2,0x1
 9d6:	0008                	0x8
 9d8:	0301                	addi	t1,t1,0
 9da:	0901                	addi	s2,s2,0
 9dc:	0004                	0x4
 9de:	0301                	addi	t1,t1,0
 9e0:	0902                	c.slli64	s2
 9e2:	0004                	0x4
 9e4:	0301                	addi	t1,t1,0
 9e6:	00040903          	lb	s2,0(s0)
 9ea:	0301                	addi	t1,t1,0
 9ec:	0901                	addi	s2,s2,0
 9ee:	0004                	0x4
 9f0:	0301                	addi	t1,t1,0
 9f2:	0901                	addi	s2,s2,0
 9f4:	0002                	c.slli64	zero
 9f6:	0301                	addi	t1,t1,0
 9f8:	0906                	slli	s2,s2,0x1
 9fa:	0004                	0x4
 9fc:	0301                	addi	t1,t1,0
 9fe:	0901                	addi	s2,s2,0
 a00:	0004                	0x4
 a02:	0301                	addi	t1,t1,0
 a04:	0901                	addi	s2,s2,0
 a06:	0004                	0x4
 a08:	0901                	addi	s2,s2,0
 a0a:	0004                	0x4
 a0c:	0100                	addi	s0,sp,128
 a0e:	0001                	nop
 a10:	0205                	addi	tp,tp,1
 a12:	0000                	unimp
 a14:	0000                	unimp
 a16:	0100cb03          	lbu	s6,16(ra) # 16cc <_bss_end+0xf40>
 a1a:	7c090103          	lb	sp,1984(s2)
 a1e:	0100                	addi	s0,sp,128
 a20:	04090403          	lb	s0,64(s2)
 a24:	0100                	addi	s0,sp,128
 a26:	04090403          	lb	s0,64(s2)
 a2a:	0100                	addi	s0,sp,128
 a2c:	04090403          	lb	s0,64(s2)
 a30:	0100                	addi	s0,sp,128
 a32:	0409                	addi	s0,s0,2
 a34:	0000                	unimp
 a36:	0101                	addi	sp,sp,0

Disassembly of section .debug_str:

00000000 <.debug_str>:
  .endr
   0:	645f 6f73 685f      	0x685f6f73645f
   6:	6e61                	lui	t3,0x18
   8:	6c64                	flw	fs1,92(s0)
   a:	0065                	c.nop	25
   c:	725f 6e61 3464      	0x34646e61725f
  12:	0038                	addi	a4,sp,8
  14:	735f 6769 006e      	0x6e6769735f
  1a:	645f 7461 0061      	0x617461645f
  20:	775f 7263 6f74      	0x6f747263775f
  26:	626d                	lui	tp,0x1b
  28:	735f 6174 6574      	0x65746174735f
  2e:	5f00                	lw	s0,56(a4)
  30:	72736377          	0x72736377
  34:	6f74                	flw	fa3,92(a4)
  36:	626d                	lui	tp,0x1b
  38:	74735f73          	csrrwi	t5,0x747,6
  3c:	7461                	lui	s0,0xffff8
  3e:	0065                	c.nop	25
  40:	6f6c                	flw	fa1,92(a4)
  42:	676e                	flw	fa4,216(sp)
  44:	6c20                	flw	fs0,88(s0)
  46:	20676e6f          	jal	t3,7624c <_stack_start+0x6624c>
  4a:	6e75                	lui	t3,0x1d
  4c:	6e676973          	csrrsi	s2,0x6e6,14
  50:	6465                	lui	s0,0x19
  52:	6920                	flw	fs0,80(a0)
  54:	746e                	flw	fs0,248(sp)
  56:	5f00                	lw	s0,56(a4)
  58:	626c                	flw	fa1,68(a2)
  5a:	7366                	flw	ft6,120(sp)
  5c:	7a69                	lui	s4,0xffffa
  5e:	0065                	c.nop	25
  60:	5f5f 6f6c 6163      	0x61636f6c5f5f
  66:	656c                	flw	fa1,76(a0)
  68:	745f 5f00 626d      	0x626d5f00745f
  6e:	7472                	flw	fs0,60(sp)
  70:	5f63776f          	jal	a4,37666 <_stack_start+0x27666>
  74:	74617473          	csrrci	s0,0x746,2
  78:	0065                	c.nop	25
  7a:	5744                	lw	s1,44(a4)
  jal x0, default_exc_handler
  7c:	0044524f          	fnmadd.s	ft4,fs0,ft4,ft0,unknown
  jal x0, reset_handler
  80:	775f 7463 6d6f      	0x6d6f7463775f
  jal x0, default_exc_handler
  86:	5f62                	lw	t5,56(sp)
  jal x0, default_exc_handler
  88:	74617473          	csrrci	s0,0x746,2
{
  8c:	0065                	c.nop	25
  8e:	5f5f 6d74 735f      	0x735f6d745f5f
  94:	6365                	lui	t1,0x19
  96:	6c00                	flw	fs0,24(s0)
  98:	20676e6f          	jal	t3,7629e <_stack_start+0x6629e>
      oldcrc32 = UPDC32 (rand_beebs (), oldcrc32);
  9c:	6f6c                	flw	fa1,92(a4)
  9e:	676e                	flw	fa4,216(sp)
  a0:	6920                	flw	fs0,80(a0)
  a2:	746e                	flw	fs0,248(sp)
  a4:	6300                	flw	fs0,0(a4)
  a6:	6372                	flw	ft6,28(sp)
  a8:	73703233          	0x73703233
  ac:	7565                	lui	a0,0xffff9
  ae:	6f64                	flw	fs1,92(a4)
  b0:	5f00                	lw	s0,56(a4)
  b2:	6275                	lui	tp,0x1d
  for (i = 0; i < 1024; ++i)
  b4:	6675                	lui	a2,0x1d
}
  b6:	5f00                	lw	s0,56(a4)
  b8:	6162                	flw	ft2,24(sp)
  ba:	5f006573          	csrrsi	a0,0x5f0,0
  be:	745f 5f6d 6f68      	0x6f685f6d745f
  c4:	7275                	lui	tp,0xffffd
{
  c6:	5f00                	lw	s0,56(a4)
  c8:	735f 0066 6f5f      	0x6f5f0066735f
  ce:	5f6e                	lw	t5,248(sp)
  for (i = 0; i < rpt; i++)
  d0:	7865                	lui	a6,0xffff9
  d2:	7469                	lui	s0,0xffffa
  d4:	615f 6772 0073      	0x736772615f
  return (int) (r % 32768);
  da:	635f 6f6f 696b      	0x696b6f6f635f
}
  e0:	0065                	c.nop	25
  e2:	5f5f 6773 756c      	0x756c67735f5f
      srand_beebs (0);
  e8:	0065                	c.nop	25
      r = crc32pseudo ();
  ea:	665f 616c 7367      	0x7367616c665f
  for (i = 0; i < rpt; i++)
  f0:	5f00                	lw	s0,56(a4)
}
  f2:	7369                	lui	t1,0xffffa
  int  res = benchmark_body (heat);
  f4:	635f 6178 5f00      	0x5f006178635f
  return 11433 == r;
  fa:	69647473          	csrrci	s0,0x696,8
  fe:	006e                	c.slli	zero,0x1b
 100:	625f 6b6c 6973      	0x69736b6c625f
}
 106:	657a                	flw	fa0,156(sp)
  seed = (seed * 1103515245L + 12345) & ((1UL << 31) - 1);
 108:	5500                	lw	s0,40(a0)
 10a:	534e                	lw	t1,240(sp)
 10c:	335f 5f32 4942      	0x49425f32335f
 112:	5354                	lw	a3,36(a4)
 114:	6200                	flw	fs0,0(a2)
 116:	6e65                	lui	t3,0x19
 118:	616d6863          	bltu	s10,s6,728 <__DTOR_END__+0x3ac>
 11c:	6b72                	flw	fs6,28(sp)
 11e:	625f 646f 0079      	0x79646f625f
 124:	635f 7476 7562      	0x75627476635f
}
 12a:	0066                	c.slli	zero,0x19
  seed = (long int) new_seed;
 12c:	6f5f 6666 6573      	0x657366666f5f
  heap_end = (void *) ((char *) heap_ptr + heap_size);
 132:	0074                	addi	a3,sp,12
  heap_ptr = (void *) heap;
 134:	6d5f 7362 7472      	0x747273626d5f
  heap_end = (void *) ((char *) heap_ptr + heap_size);
 13a:	7363776f          	jal	a4,37870 <_stack_start+0x27870>
  heap_requested = 0;
 13e:	735f 6174 6574      	0x65746174735f
  return ((void *) ((char *) heap + heap_requested) <= heap_end);
 144:	5f00                	lw	s0,56(a4)
 146:	626d                	lui	tp,0x1b
 148:	6c72                	flw	fs8,28(sp)
 14a:	6e65                	lui	t3,0x19
 14c:	735f 6174 6574      	0x65746174735f
 152:	5f00                	lw	s0,56(a4)
}
 154:	6e66                	flw	ft8,88(sp)
 156:	7261                	lui	tp,0xffff8
 158:	6f007367          	0x6f007367
  heap_requested += size;
 15c:	646c                	flw	fa1,76(s0)
 15e:	33637263          	bgeu	t1,s6,482 <__DTOR_END__+0x106>
  void *new_ptr = heap_ptr;
 162:	0032                	c.slli	zero,0xc
 164:	665f 736e 2f00      	0x2f00736e665f
  heap_requested += size;
 16a:	6f68                	flw	fa0,92(a4)
  if (((void *) ((char *) heap_ptr + size) > heap_end) || (0 == size))
 16c:	656d                	lui	a0,0x1b
 16e:	2f43432f          	0x2f43432f
 172:	6262                	flw	ft4,24(sp)
 174:	7565                	lui	a0,0xffff9
 176:	72657473          	csrrci	s0,0x726,10
 17a:	6f72502f          	0x6f72502f
      heap_ptr = (void *) ((char *) heap_ptr + size);
 17e:	656a                	flw	fa0,152(sp)
}
 180:	2f737463          	bgeu	t1,s7,468 <__DTOR_END__+0xec>
    return NULL;
 184:	68746967          	0x68746967
  void *new_ptr = malloc_beebs (nmemb * size);
 188:	6275                	lui	tp,0x1d
 18a:	632e                	flw	ft6,200(sp)
{
 18c:	702f6d6f          	jal	s10,f688e <_stack_start+0xe688e>
 190:	6962                	flw	fs2,24(sp)
  void *new_ptr = malloc_beebs (nmemb * size);
 192:	676e                	flw	fa4,216(sp)
 194:	6562692f          	0x6562692f
 198:	5f78                	lw	a4,124(a4)
  if (NULL != new_ptr)
 19a:	732f6277          	0x732f6277
    memset (new_ptr, 0, nmemb * size);
 19e:	72632f77          	0x72632f77
}
 1a2:	32335f63          	bge	t1,gp,4e0 <__DTOR_END__+0x164>
 1a6:	5f00                	lw	s0,56(a4)
 1a8:	6c66                	flw	fs8,88(sp)
 1aa:	5f6b636f          	jal	t1,b67a0 <_stack_start+0xa67a0>
  heap_requested += size;
 1ae:	0074                	addi	a3,sp,12
 1b0:	735f 6474 7265      	0x72656474735f
  void *new_ptr = heap_ptr;
 1b6:	0072                	c.slli	zero,0x1c
  heap_requested += size;
 1b8:	425f 6769 6e69      	0x6e696769425f
  if (((void *) ((char *) heap_ptr + size) > heap_end) || (0 == size))
 1be:	0074                	addi	a3,sp,12
 1c0:	675f 6d61 616d      	0x616d6d61675f
 1c6:	735f 6769 676e      	0x676e6769735f
 1cc:	6d61                	lui	s10,0x18
      heap_ptr = (void *) ((char *) heap_ptr + size);
 1ce:	4200                	lw	s0,0(a2)
 1d0:	5459                	li	s0,-10
      if (NULL != ptr)
 1d2:	0045                	c.nop	17
	  for (i = 0; i < size; i++)
 1d4:	725f 6165 0064      	0x646165725f
	    ((char *) new_ptr)[i] = ((char *) ptr)[i];
 1da:	725f 7365 6c75      	0x6c757365725f
 1e0:	5f74                	lw	a3,124(a4)
	  for (i = 0; i < size; i++)
 1e2:	5f5f006b          	0x5f5f006b
	    ((char *) new_ptr)[i] = ((char *) ptr)[i];
 1e6:	6d74                	flw	fa3,92(a0)
	  for (i = 0; i < size; i++)
 1e8:	5f00                	lw	s0,56(a4)
 1ea:	775f 6863 0062      	0x626863775f
    return NULL;
 1f0:	735f 6474 756f      	0x756f6474735f
  __asm__ volatile ("li a0, 0" : : : "memory");
 1f6:	0074                	addi	a3,sp,12
}
 1f8:	635f 7476 656c      	0x656c7476635f
  __asm__ volatile ("li a0, 0" : : : "memory");
 1fe:	006e                	c.slli	zero,0x1b
}
 200:	6f5f 6666 745f      	0x745f66666f5f
  mv  x1, x0
 206:	5f00                	lw	s0,56(a4)
 208:	696e                	flw	fs2,216(sp)
  mv  x2, x1
 20a:	0073626f          	jal	tp,36a10 <_stack_start+0x26a10>
  mv  x4, x1
 20e:	726f6873          	csrrsi	a6,0x726,30
  mv  x6, x1
 212:	2074                	fld	fa3,192(s0)
  mv  x7, x1
 214:	6e75                	lui	t3,0x1d
  mv  x8, x1
 216:	6e676973          	csrrsi	s2,0x6e6,14
  mv x10, x1
 21a:	6465                	lui	s0,0x19
  mv x11, x1
 21c:	6920                	flw	fs0,80(a0)
  mv x12, x1
 21e:	746e                	flw	fs0,248(sp)
  mv x13, x1
 220:	5f00                	lw	s0,56(a4)
  mv x14, x1
 222:	7461                	lui	s0,0xffff8
  mv x15, x1
 224:	7865                	lui	a6,0xffff9
  mv x16, x1
 226:	7469                	lui	s0,0xffffa
  mv x17, x1
 228:	0030                	addi	a2,sp,8
  mv x18, x1
 22a:	735f 6769 616e      	0x616e6769735f
  mv x21, x1
 230:	5f6c                	lw	a1,124(a4)
  mv x22, x1
 232:	7562                	flw	fa0,56(sp)
  mv x23, x1
 234:	0066                	c.slli	zero,0x19
  mv x24, x1
 236:	615f 6373 6974      	0x69746373615f
  mv x27, x1
 23c:	656d                	lui	a0,0x1b
  mv x28, x1
 23e:	625f 6675 5f00      	0x5f006675625f
  mv x31, x1
 244:	6572                	flw	fa0,28(sp)
  la   x2, _stack_start
 246:	746c7573          	csrrci	a0,0x746,24
 24a:	5f00                	lw	s0,56(a4)
 24c:	775f 6863 7700      	0x77006863775f
  la x27, _bss_end
 252:	6e69                	lui	t3,0x1a
 254:	5f74                	lw	a3,124(a4)
  bge x26, x27, zero_loop_end
 256:	0074                	addi	a3,sp,12
 258:	6c5f 636f 006b      	0x6b636f6c5f
  addi x26, x26, 4
 25e:	665f 616c 7367      	0x7367616c665f
  addi x10, x0, 0
 264:	0032                	c.slli	zero,0xc
 266:	775f 6972 6574      	0x65746972775f
  jal x1, main
 26c:	5f00                	lw	s0,56(a4)
 26e:	745f 5f6d 6579      	0x65795f6d745f
 274:	7261                	lui	tp,0xffff8
 276:	5f00                	lw	s0,56(a4)
 278:	6d6e                	flw	fs10,216(sp)
 27a:	6c61                	lui	s8,0x18
 27c:	6f6c                	flw	fa1,92(a4)
 27e:	72730063          	beq	t1,t2,99e <_bss_end+0x212>
 282:	6e61                	lui	t3,0x18
 284:	5f64                	lw	s1,124(a4)
 286:	6562                	flw	fa0,24(sp)
 288:	6265                	lui	tp,0x19
 28a:	6f6c0073          	0x6f6c0073
 28e:	676e                	flw	fa4,216(sp)
 290:	6420                	flw	fs0,72(s0)
 292:	6c62756f          	jal	a0,27958 <_stack_start+0x17958>
 296:	0065                	c.nop	25
 298:	6e5f 7865 6674      	0x667478656e5f
 29e:	6300                	flw	fs0,0(a4)
 2a0:	6372                	flw	ft6,28(sp)
 2a2:	335f 5f32 6174      	0x61745f32335f
 2a8:	0062                	c.slli	zero,0x18
 2aa:	5f5f 6d74 6d5f      	0x6d5f6d745f5f
 2b0:	5f006e6f          	jal	t3,68a0 <_stack_len+0x28a0>
 2b4:	7461                	lui	s0,0xffff8
 2b6:	7865                	lui	a6,0xffff9
 2b8:	7469                	lui	s0,0xffffa
 2ba:	7300                	flw	fs0,32(a4)
 2bc:	6275                	lui	tp,0x1d
 2be:	6174706f          	j	480d4 <_stack_start+0x380d4>
 2c2:	6772                	flw	fa4,28(sp)
 2c4:	5f00                	lw	s0,56(a4)
 2c6:	735f 6964 6964      	0x69646964735f
 2cc:	696e                	flw	fs2,216(sp)
 2ce:	0074                	addi	a3,sp,12
 2d0:	20554e47          	fmsub.s	ft8,fa0,ft5,ft4,rmm
 2d4:	20373143          	fmadd.s	ft2,fa4,ft3,ft4,rup
 2d8:	2e38                	fld	fa4,88(a2)
 2da:	20302e33          	0x20302e33
 2de:	6d2d                	lui	s10,0xb
 2e0:	7261                	lui	tp,0xffff8
 2e2:	723d6863          	bltu	s10,gp,a12 <_bss_end+0x286>
 2e6:	3376                	fld	ft6,376(sp)
 2e8:	6932                	flw	fs2,12(sp)
 2ea:	636d                	lui	t1,0x1b
 2ec:	2d20                	fld	fs0,88(a0)
 2ee:	616d                	addi	sp,sp,240
 2f0:	6962                	flw	fs2,24(sp)
 2f2:	693d                	lui	s2,0xf
 2f4:	706c                	flw	fa1,100(s0)
 2f6:	2d203233          	0x2d203233
 2fa:	636d                	lui	t1,0x1b
 2fc:	6f6d                	lui	t5,0x1b
 2fe:	6564                	flw	fs1,76(a0)
 300:	3d6c                	fld	fa1,248(a0)
 302:	656d                	lui	a0,0x1b
 304:	6164                	flw	fs1,68(a0)
 306:	796e                	flw	fs2,248(sp)
 308:	2d20                	fld	fs0,88(a0)
 30a:	4f2d2067          	0x4f2d2067
 30e:	662d2073          	csrs	0x662,s10
 312:	6976                	flw	fs2,92(sp)
 314:	69626973          	csrrsi	s2,0x696,4
 318:	696c                	flw	fa1,84(a0)
 31a:	7974                	flw	fa3,116(a0)
 31c:	683d                	lui	a6,0xf
 31e:	6469                	lui	s0,0x1a
 320:	6564                	flw	fs1,76(a0)
 322:	006e                	c.slli	zero,0x1b
 324:	665f 6572 6c65      	0x6c656572665f
 32a:	7369                	lui	t1,0xffffa
 32c:	0074                	addi	a3,sp,12
 32e:	4c5f 434f 5f4b      	0x5f4b434f4c5f
 334:	4552                	lw	a0,20(sp)
 336:	53525543          	fmadd.d	fa0,ft4,fs5,fa0,unknown
 33a:	5649                	li	a2,-14
 33c:	5f45                	li	t5,-15
 33e:	0054                	addi	a3,sp,4
 340:	6d726177          	0x6d726177
 344:	635f 6361 6568      	0x65686361635f
 34a:	6e750073          	0x6e750073
{
 34e:	6e676973          	csrrsi	s2,0x6e6,14
  initialise_benchmark ();
 352:	6465                	lui	s0,0x19
  warm_caches (WARMUP_HEAT);
 354:	6320                	flw	fs0,64(a4)
 356:	6168                	flw	fa0,68(a0)
  start_trigger ();
 358:	0072                	c.slli	zero,0x1c
  result = benchmark ();
 35a:	6e5f 7765 5f00      	0x5f0077656e5f
  correct = verify_benchmark (result);
 360:	5f68                	lw	a0,124(a4)
 362:	7265                	lui	tp,0xffff9
 364:	6e72                	flw	ft8,28(sp)
    asm("wfi");
 366:	6873006f          	j	311ec <_stack_start+0x211ec>
 36a:	2074726f          	jal	tp,47d70 <_stack_start+0x37d70>
 36e:	6e69                	lui	t3,0x1a
 370:	0074                	addi	a3,sp,12
 372:	5f5f 6d74 795f      	0x795f6d745f5f
 378:	6164                	flw	fs1,68(a0)
 37a:	0079                	c.nop	30
 37c:	5f5f 6273 6675      	0x667562735f5f
 382:	5f00                	lw	s0,56(a4)
 384:	6f69                	lui	t5,0x1a
 386:	7362                	flw	ft6,56(sp)
 388:	5f00                	lw	s0,56(a4)
 38a:	465f 4c49 0045      	0x454c49465f
 390:	6d5f 7362 6174      	0x617473626d5f
 396:	6574                	flw	fa3,76(a0)
 398:	745f 5f00 735f      	0x735f5f00745f
 39e:	4946                	lw	s2,80(sp)
 3a0:	454c                	lw	a1,12(a0)
 3a2:	5f00                	lw	s0,56(a4)
 3a4:	626d                	lui	tp,0x1b
 3a6:	74617473          	csrrci	s0,0x746,2
 3aa:	0065                	c.nop	25
 3ac:	725f 6e61 5f64      	0x5f646e61725f
 3b2:	656e                	flw	fa0,216(sp)
 3b4:	7478                	flw	fa4,108(s0)
 3b6:	5f00                	lw	s0,56(a4)
 3b8:	626d                	lui	tp,0x1b
 3ba:	656c                	flw	fa1,76(a0)
 3bc:	5f6e                	lw	t5,248(sp)
 3be:	74617473          	csrrci	s0,0x746,2
 3c2:	0065                	c.nop	25
 3c4:	695f 636e 5f00      	0x5f00636e695f
 3ca:	6e69                	lui	t3,0x1a
 3cc:	0064                	addi	s1,sp,12
 3ce:	6c5f 636f 6c61      	0x6c61636f6c5f
 3d4:	0065                	c.nop	25
 3d6:	5f5f 6c63 6165      	0x61656c635f5f
 3dc:	756e                	flw	fa0,248(sp)
 3de:	0070                	addi	a2,sp,12
 3e0:	755f 736e 6570      	0x6570736e755f
 3e6:	69666963          	bltu	a2,s6,a78 <_bss_end+0x2ec>
 3ea:	6465                	lui	s0,0x19
 3ec:	6c5f 636f 6c61      	0x6c61636f6c5f
 3f2:	5f65                	li	t5,-7
 3f4:	6e69                	lui	t3,0x1a
 3f6:	6f66                	flw	ft10,88(sp)
 3f8:	5f00                	lw	s0,56(a4)
 3fa:	616d                	addi	sp,sp,240
 3fc:	7778                	flw	fa4,108(a4)
 3fe:	7364                	flw	fs1,100(a4)
 400:	5f00                	lw	s0,56(a4)
 402:	6572                	flw	fa0,28(sp)
 404:	6e65                	lui	t3,0x19
 406:	0074                	addi	a3,sp,12
 408:	5f5f 6f63 6e75      	0x6e756f635f5f
 40e:	0074                	addi	a3,sp,12
 410:	5f5f 6176 756c      	0x756c61765f5f
 416:	0065                	c.nop	25
 418:	735f 6565 006b      	0x6b6565735f
 41e:	665f 6f70 5f73      	0x5f736f70665f
 424:	0074                	addi	a3,sp,12
 426:	6568                	flw	fa0,76(a0)
 428:	7461                	lui	s0,0xffff8
 42a:	5f00                	lw	s0,56(a4)
 42c:	745f 5f6d 696d      	0x696d5f6d745f
 432:	006e                	c.slli	zero,0x1b
 434:	655f 656d 6772      	0x6772656d655f
 43a:	6e65                	lui	t3,0x19
 43c:	5f007963          	bgeu	zero,a6,a2e <_bss_end+0x2a2>
 440:	756d                	lui	a0,0xffffb
 442:	746c                	flw	fa1,108(s0)
 444:	5f00                	lw	s0,56(a4)
 446:	74727473          	csrrci	s0,0x747,4
 44a:	6c5f6b6f          	jal	s6,f730e <_stack_start+0xe730e>
 44e:	7361                	lui	t1,0xffff8
 450:	0074                	addi	a3,sp,12
 452:	665f 746e 7079      	0x7079746e665f
 458:	7365                	lui	t1,0xffff9
 45a:	5f00                	lw	s0,56(a4)
 45c:	6461                	lui	s0,0x18
 45e:	0064                	addi	s1,sp,12
 460:	5f5f 4c55 6e6f      	0x6e6f4c555f5f
 466:	675f0067          	jr	1653(t5) # 1a675 <_stack_start+0xa675>
 46a:	7465                	lui	s0,0xffff9
 46c:	6164                	flw	fs1,68(a0)
 46e:	6574                	flw	fa3,76(a0)
 470:	655f 7272 5f00      	0x5f007272655f
 476:	626f6c67          	0x626f6c67
 47a:	6c61                	lui	s8,0x18
 47c:	695f 706d 7275      	0x7275706d695f
 482:	5f65                	li	t5,-7
 484:	7470                	flw	fa2,108(s0)
 486:	0072                	c.slli	zero,0x1c
 488:	755f 756e 6573      	0x6573756e755f
 48e:	5f64                	lw	s1,124(a4)
 490:	6172                	flw	ft2,28(sp)
 492:	646e                	flw	fs0,216(sp)
 494:	7600                	flw	fs0,40(a2)
 496:	7265                	lui	tp,0xffff9
 498:	6669                	lui	a2,0x1a
 49a:	5f79                	li	t5,-2
 49c:	6562                	flw	fa0,24(sp)
 49e:	636e                	flw	ft6,216(sp)
 4a0:	6d68                	flw	fa0,92(a0)
 4a2:	7261                	lui	tp,0xffff8
 4a4:	665f006b          	0x665f006b
 4a8:	6c69                	lui	s8,0x1a
 4aa:	0065                	c.nop	25
 4ac:	775f 7364 5f00      	0x5f007364775f
 4b2:	745f 5f6d 6477      	0x64775f6d745f
 4b8:	7961                	lui	s2,0xffff8
 4ba:	5f00                	lw	s0,56(a4)
 4bc:	65756c67          	0x65756c67
 4c0:	5f00                	lw	s0,56(a4)
 4c2:	7a697373          	csrrci	t1,0x7a6,18
 4c6:	5f65                	li	t5,-7
 4c8:	0074                	addi	a3,sp,12
 4ca:	6c5f 3436 5f61      	0x5f6134366c5f
 4d0:	7562                	flw	fa0,56(sp)
 4d2:	0066                	c.slli	zero,0x19
 4d4:	735f 6769 665f      	0x665f6769735f
 4da:	6e75                	lui	t3,0x1d
 4dc:	6e5f0063          	beq	t5,t0,bbc <_bss_end+0x430>
 4e0:	7562                	flw	fa0,56(sp)
 4e2:	0066                	c.slli	zero,0x19
 4e4:	755f 756e 6573      	0x6573756e755f
 4ea:	0064                	addi	s1,sp,12
 4ec:	5f5f 6d74 695f      	0x695f6d745f5f
 4f2:	74736473          	csrrsi	s0,0x747,6
 4f6:	5f00                	lw	s0,56(a4)
 4f8:	6f6c                	flw	fa1,92(a4)
 4fa:	746c6163          	bltu	s8,t1,c3c <_bss_end+0x4b0>
 4fe:	6d69                	lui	s10,0x1a
 500:	5f65                	li	t5,-7
 502:	7562                	flw	fa0,56(sp)
 504:	0066                	c.slli	zero,0x19
 506:	635f 6f6c 6573      	0x65736f6c635f
 50c:	5f00                	lw	s0,56(a4)
 50e:	3472                	fld	fs0,312(sp)
 510:	0038                	addi	a4,sp,8
 512:	6d5f 7462 776f      	0x776f74626d5f
 518:	74735f63          	bge	t1,t2,c76 <_bss_end+0x4ea>
 51c:	7461                	lui	s0,0xffff8
 51e:	0065                	c.nop	25
 520:	705f 7335 6300      	0x63007335705f
 526:	6372                	flw	ft6,28(sp)
 528:	335f 2e32 0063      	0x632e32335f
 52e:	6e69                	lui	t3,0x1a
 530:	7469                	lui	s0,0xffffa
 532:	6169                	addi	sp,sp,208
 534:	696c                	flw	fa1,84(a0)
 536:	625f6573          	csrrsi	a0,0x625,30
 53a:	6e65                	lui	t3,0x19
 53c:	616d6863          	bltu	s10,s6,b4c <_bss_end+0x3c0>
 540:	6b72                	flw	fs6,28(sp)
 542:	5f00                	lw	s0,56(a4)
 544:	745f 5f6d 646d      	0x646d5f6d745f
 54a:	7961                	lui	s2,0xffff8
 54c:	5f00                	lw	s0,56(a4)
 54e:	625f 6975 746c      	0x746c6975625f
 554:	6e69                	lui	t3,0x1a
 556:	6d5f 6d65 6573      	0x65736d656d5f
 55c:	0074                	addi	a3,sp,12
 55e:	6568                	flw	fa0,76(a0)
 560:	7061                	c.lui	zero,0xffff8
 562:	735f 7a69 0065      	0x657a69735f
 568:	656e                	flw	fa0,216(sp)
 56a:	74705f77          	0x74705f77
 56e:	0072                	c.slli	zero,0x1c
 570:	63656863          	bltu	a0,s6,ba0 <_bss_end+0x414>
 574:	65685f6b          	0x65685f6b
 578:	7061                	c.lui	zero,0xffff8
 57a:	625f 6565 7362      	0x73626565625f
 580:	6900                	flw	fs0,16(a0)
 582:	696e                	flw	fs2,216(sp)
 584:	5f74                	lw	a3,124(a4)
 586:	6568                	flw	fa0,76(a0)
 588:	7061                	c.lui	zero,0xffff8
 58a:	625f 6565 7362      	0x73626565625f
 590:	6800                	flw	fs0,16(s0)
 592:	6165                	addi	sp,sp,112
 594:	5f70                	lw	a2,124(a4)
 596:	6572                	flw	fa0,28(sp)
 598:	7571                	lui	a0,0xffffc
 59a:	7365                	lui	t1,0xffff9
 59c:	6574                	flw	fa3,76(a0)
 59e:	0064                	addi	s1,sp,12
 5a0:	6568                	flw	fa0,76(a0)
 5a2:	7061                	c.lui	zero,0xffff8
 5a4:	705f 7274 6e00      	0x6e007274705f
 5aa:	7765                	lui	a4,0xffff9
 5ac:	735f 6565 0064      	0x646565735f
 5b2:	6572                	flw	fa0,28(sp)
 5b4:	6c61                	lui	s8,0x18
 5b6:	6f6c                	flw	fa1,92(a4)
 5b8:	65625f63          	bge	tp,s6,c16 <_bss_end+0x48a>
 5bc:	6265                	lui	tp,0x19
 5be:	61630073          	0x61630073
 5c2:	6c6c                	flw	fa1,92(s0)
 5c4:	625f636f          	jal	t1,f73e8 <_stack_start+0xe73e8>
 5c8:	6565                	lui	a0,0x19
 5ca:	7362                	flw	ft6,56(sp)
 5cc:	6d00                	flw	fs0,24(a0)
 5ce:	6c61                	lui	s8,0x18
 5d0:	6f6c                	flw	fa1,92(a4)
 5d2:	65625f63          	bge	tp,s6,c30 <_bss_end+0x4a4>
 5d6:	6265                	lui	tp,0x19
 5d8:	65680073          	0x65680073
 5dc:	7061                	c.lui	zero,0xffff8
 5de:	655f 646e 6600      	0x6600646e655f
 5e4:	6572                	flw	fa0,28(sp)
 5e6:	5f65                	li	t5,-7
 5e8:	6562                	flw	fa0,24(sp)
 5ea:	6265                	lui	tp,0x19
 5ec:	65620073          	0x65620073
 5f0:	6265                	lui	tp,0x19
 5f2:	632e6373          	csrrsi	t1,0x632,28
 5f6:	6800                	flw	fs0,16(s0)
 5f8:	6165                	addi	sp,sp,112
 5fa:	0070                	addi	a2,sp,12
 5fc:	6d6e                	flw	fs10,216(sp)
 5fe:	6d65                	lui	s10,0x19
 600:	0062                	c.slli	zero,0x18
 602:	706f7473          	csrrci	s0,0x706,30
 606:	745f 6972 6767      	0x67676972745f
 60c:	7265                	lui	tp,0xffff9
 60e:	6200                	flw	fs0,0(a2)
 610:	6472616f          	jal	sp,27456 <_stack_start+0x17456>
 614:	632e                	flw	ft6,200(sp)
 616:	7300                	flw	fs0,32(a4)
 618:	6174                	flw	fa3,68(a0)
 61a:	7472                	flw	fs0,60(sp)
 61c:	745f 6972 6767      	0x67676972745f
 622:	7265                	lui	tp,0xffff9
 624:	6900                	flw	fs0,16(a0)
 626:	696e                	flw	fs2,216(sp)
 628:	6974                	flw	fa3,84(a0)
 62a:	6c61                	lui	s8,0x18
 62c:	7369                	lui	t1,0xffffa
 62e:	5f65                	li	t5,-7
 630:	6f62                	flw	ft10,24(sp)
 632:	7261                	lui	tp,0xffff8
 634:	0064                	addi	s1,sp,12
 636:	7261                	lui	tp,0xffff8
 638:	61007667          	0x61007667
 63c:	6772                	flw	fa4,28(sp)
 63e:	6f630063          	beq	t1,s6,d1e <_bss_end+0x592>
 642:	7272                	flw	ft4,60(sp)
 644:	6365                	lui	t1,0x19
 646:	0074                	addi	a3,sp,12
 648:	616d                	addi	sp,sp,240
 64a:	6e69                	lui	t3,0x1a
 64c:	632e                	flw	ft6,200(sp)
 64e:	6d00                	flw	fs0,24(a0)
 650:	6961                	lui	s2,0x18
 652:	006e                	c.slli	zero,0x1b
 654:	30747263          	bgeu	s0,t2,958 <_bss_end+0x1cc>
 658:	532e                	lw	t1,232(sp)
 65a:	4700                	lw	s0,8(a4)
 65c:	554e                	lw	a0,240(sp)
 65e:	4120                	lw	s0,64(a0)
 660:	2e322053          	0x2e322053
 664:	          	snez	tp,zero

Disassembly of section .comment:

00000000 <.comment>:
  .endr
   0:	3a434347          	fmsub.d	ft6,ft6,ft4,ft7,rmm
   4:	2820                	fld	fs0,80(s0)
   6:	69466953          	0x69466953
   a:	6576                	flw	fa0,92(sp)
   c:	4720                	lw	s0,72(a4)
   e:	38204343          	fmadd.s	ft6,ft0,ft2,ft7,rmm
  12:	332e                	fld	ft6,232(sp)
  14:	302e                	fld	ft0,232(sp)
  16:	322d                	jal	fffff940 <_stack_start+0xfffef940>
  18:	3130                	fld	fa2,96(a0)
  1a:	2e39                	jal	338 <memset+0xc8>
  1c:	3830                	fld	fa2,112(s0)
  1e:	302e                	fld	ft0,232(sp)
  20:	2029                	jal	2a <__DYNAMIC+0x2a>
  22:	2e38                	fld	fa4,88(a2)
  24:	00302e33          	sgtz	t3,gp

Disassembly of section .riscv.attributes:

00000000 <.riscv.attributes>:
   0:	2541                	jal	680 <__DTOR_END__+0x304>
   2:	0000                	unimp
   4:	7200                	flw	fs0,32(a2)
   6:	7369                	lui	t1,0xffffa
   8:	01007663          	bgeu	zero,a6,14 <__DYNAMIC+0x14>
   c:	0000001b          	0x1b
  10:	1004                	addi	s1,sp,32
  12:	7205                	lui	tp,0xfffe1
  14:	3376                	fld	ft6,376(sp)
  16:	6932                	flw	fs2,12(sp)
  18:	7032                	flw	ft0,44(sp)
  1a:	5f30                	lw	a2,120(a4)
  1c:	326d                	jal	fffff9c6 <_stack_start+0xfffef9c6>
  1e:	3070                	fld	fa2,224(s0)
  20:	635f 7032 0030      	0x307032635f

Disassembly of section .debug_frame:

00000000 <.debug_frame>:
   0:	000c                	0xc
   2:	0000                	unimp
   4:	ffff                	0xffff
   6:	ffff                	0xffff
   8:	0001                	nop
   a:	7c01                	lui	s8,0xfffe0
   c:	0d01                	addi	s10,s10,0
   e:	0002                	c.slli64	zero
  10:	0024                	addi	s1,sp,8
  12:	0000                	unimp
  14:	0000                	unimp
  16:	0000                	unimp
  18:	008c                	addi	a1,sp,64
  1a:	0000                	unimp
  1c:	003a                	c.slli	zero,0xe
  1e:	0000                	unimp
  20:	0e42                	slli	t3,t3,0x10
  22:	4810                	lw	a2,16(s0)
  24:	0288                	addi	a0,sp,320
  26:	0389                	addi	t2,t2,2
  28:	0492                	slli	s1,s1,0x4
  2a:	0181                	addi	gp,gp,0
  2c:	c166                	sw	s9,128(sp)
  2e:	c842                	sw	a6,16(sp)
  30:	c942                	sw	a6,144(sp)
  32:	d242                	sw	a6,36(sp)
  34:	0e42                	slli	t3,t3,0x10
  36:	0000                	unimp
  38:	0024                	addi	s1,sp,8
  3a:	0000                	unimp
  3c:	0000                	unimp
  3e:	0000                	unimp
  40:	00c6                	slli	ra,ra,0x11
  42:	0000                	unimp
  44:	002c                	addi	a1,sp,8
  46:	0000                	unimp
  48:	0e42                	slli	t3,t3,0x10
  4a:	4610                	lw	a2,8(a2)
  4c:	0288                	addi	a0,sp,320
  4e:	0389                	addi	t2,t2,2
  50:	0181                	addi	gp,gp,0
  52:	0a4a                	slli	s4,s4,0x12
  54:	42c1                	li	t0,16
  56:	46c8                	lw	a0,12(a3)
  58:	44c9                	li	s1,18
  5a:	000e                	c.slli	zero,0x3
  5c:	0b42                	slli	s6,s6,0x10
  5e:	0000                	unimp
  60:	000c                	0xc
  62:	0000                	unimp
  64:	0000                	unimp
  66:	0000                	unimp
  68:	00f2                	slli	ra,ra,0x1c
  6a:	0000                	unimp
  6c:	0002                	c.slli64	zero
  6e:	0000                	unimp
  70:	000c                	0xc
  72:	0000                	unimp
  74:	0000                	unimp
  76:	0000                	unimp
  78:	00f4                	addi	a3,sp,76
  7a:	0000                	unimp
  jal x0, default_exc_handler
  7c:	0002                	c.slli64	zero
  7e:	0000                	unimp
  jal x0, reset_handler
  80:	000c                	0xc
  82:	0000                	unimp
  jal x0, default_exc_handler
  84:	0000                	unimp
  86:	0000                	unimp
  jal x0, default_exc_handler
  88:	00f6                	slli	ra,ra,0x1d
  8a:	0000                	unimp
{
  8c:	0004                	0x4
  8e:	0000                	unimp
  90:	000c                	0xc
  92:	0000                	unimp
  94:	0000                	unimp
  96:	0000                	unimp
  98:	00fa                	slli	ra,ra,0x1e
  oldcrc32 = 0xFFFFFFFF;
  9a:	0000                	unimp
      oldcrc32 = UPDC32 (rand_beebs (), oldcrc32);
  9c:	000e                	c.slli	zero,0x3
  9e:	0000                	unimp
  a0:	000c                	0xc
  a2:	0000                	unimp
  a4:	ffff                	0xffff
  a6:	ffff                	0xffff
  a8:	0001                	nop
  aa:	7c01                	lui	s8,0xfffe0
  ac:	0d01                	addi	s10,s10,0
  ae:	0002                	c.slli64	zero
  b0:	000c                	0xc
  b2:	0000                	unimp
  for (i = 0; i < 1024; ++i)
  b4:	00a0                	addi	s0,sp,72
}
  b6:	0000                	unimp
  b8:	0108                	addi	a0,sp,128
  ba:	0000                	unimp
  bc:	0024                	addi	s1,sp,8
  be:	0000                	unimp
  c0:	000c                	0xc
  c2:	0000                	unimp
  c4:	00a0                	addi	s0,sp,72
{
  c6:	0000                	unimp
  c8:	012c                	addi	a1,sp,136
  ca:	0000                	unimp
  cc:	0006                	c.slli	zero,0x1
  ce:	0000                	unimp
  for (i = 0; i < rpt; i++)
  d0:	000c                	0xc
  d2:	0000                	unimp
  d4:	00a0                	addi	s0,sp,72
}
  d6:	0000                	unimp
  d8:	0132                	slli	sp,sp,0xc
  return (int) (r % 32768);
  da:	0000                	unimp
  dc:	0010                	0x10
}
  de:	0000                	unimp
  e0:	000c                	0xc
  e2:	0000                	unimp
  e4:	00a0                	addi	s0,sp,72
      srand_beebs (0);
  e6:	0000                	unimp
  e8:	0142                	slli	sp,sp,0x10
      r = crc32pseudo ();
  ea:	0000                	unimp
  ec:	0018                	0x18
  for (i = 0; i < rpt; i++)
  ee:	0000                	unimp
  f0:	000c                	0xc
}
  f2:	0000                	unimp
  int  res = benchmark_body (heat);
  f4:	00a0                	addi	s0,sp,72
  return benchmark_body (LOCAL_SCALE_FACTOR * CPU_MHZ);
  f6:	0000                	unimp
  f8:	015a                	slli	sp,sp,0x16
  return 11433 == r;
  fa:	0000                	unimp
  fc:	002e                	c.slli	zero,0xb
  fe:	0000                	unimp
 100:	001c                	0x1c
}
 102:	0000                	unimp
 104:	00a0                	addi	s0,sp,72
 106:	0000                	unimp
  seed = (seed * 1103515245L + 12345) & ((1UL << 31) - 1);
 108:	0188                	addi	a0,sp,192
 10a:	0000                	unimp
 10c:	0024                	addi	s1,sp,8
 10e:	0000                	unimp
 110:	0e46                	slli	t3,t3,0x11
 112:	4420                	lw	s0,72(s0)
 114:	0288                	addi	a0,sp,320
 116:	0181                	addi	gp,gp,0
 118:	c154                	sw	a3,4(a0)
 11a:	c842                	sw	a6,16(sp)
 11c:	0e42                	slli	t3,t3,0x10
 11e:	0000                	unimp
 120:	000c                	0xc
 122:	0000                	unimp
 124:	00a0                	addi	s0,sp,72
 126:	0000                	unimp
}
 128:	01ac                	addi	a1,sp,200
 12a:	0000                	unimp
  seed = (long int) new_seed;
 12c:	0048                	addi	a0,sp,4
 12e:	0000                	unimp
}
 130:	000c                	0xc
  heap_end = (void *) ((char *) heap_ptr + heap_size);
 132:	0000                	unimp
  heap_ptr = (void *) heap;
 134:	00a0                	addi	s0,sp,72
 136:	0000                	unimp
  heap_end = (void *) ((char *) heap_ptr + heap_size);
 138:	01f4                	addi	a3,sp,204
 13a:	0000                	unimp
  heap_requested = 0;
 13c:	0002                	c.slli64	zero
 13e:	0000                	unimp
}
 140:	000c                	0xc
  return ((void *) ((char *) heap + heap_requested) <= heap_end);
 142:	0000                	unimp
 144:	ffff                	0xffff
 146:	ffff                	0xffff
 148:	0001                	nop
 14a:	7c01                	lui	s8,0xfffe0
 14c:	0d01                	addi	s10,s10,0
 14e:	0002                	c.slli64	zero
 150:	000c                	0xc
 152:	0000                	unimp
}
 154:	0140                	addi	s0,sp,132
 156:	0000                	unimp
 158:	01f6                	slli	gp,gp,0x1d
  heap_requested += size;
 15a:	0000                	unimp
 15c:	0004                	0x4
 15e:	0000                	unimp
  void *new_ptr = heap_ptr;
 160:	000c                	0xc
 162:	0000                	unimp
 164:	0140                	addi	s0,sp,132
  heap_requested += size;
 166:	0000                	unimp
 168:	01fa                	slli	gp,gp,0x1e
 16a:	0000                	unimp
  if (((void *) ((char *) heap_ptr + size) > heap_end) || (0 == size))
 16c:	0004                	0x4
 16e:	0000                	unimp
 170:	000c                	0xc
 172:	0000                	unimp
 174:	0140                	addi	s0,sp,132
 176:	0000                	unimp
 178:	01fe                	slli	gp,gp,0x1f
 17a:	0000                	unimp
      heap_ptr = (void *) ((char *) heap_ptr + size);
 17c:	0004                	0x4
 17e:	0000                	unimp
}
 180:	000c                	0xc
 182:	0000                	unimp
    return NULL;
 184:	ffff                	0xffff
 186:	ffff                	0xffff
  void *new_ptr = malloc_beebs (nmemb * size);
 188:	0001                	nop
 18a:	7c01                	lui	s8,0xfffe0
{
 18c:	0d01                	addi	s10,s10,0
 18e:	0002                	c.slli64	zero
 190:	0014                	0x14
  void *new_ptr = malloc_beebs (nmemb * size);
 192:	0000                	unimp
 194:	0180                	addi	s0,sp,192
 196:	0000                	unimp
 198:	034c                	addi	a1,sp,388
  if (NULL != new_ptr)
 19a:	0000                	unimp
    memset (new_ptr, 0, nmemb * size);
 19c:	0020                	addi	s0,sp,8
 19e:	0000                	unimp
 1a0:	0e42                	slli	t3,t3,0x10
}
 1a2:	4220                	lw	s0,64(a2)
 1a4:	0181                	addi	gp,gp,0
	...

Disassembly of section .debug_ranges:

00000000 <.debug_ranges>:
  .endr
   0:	034c                	addi	a1,sp,388
   2:	0000                	unimp
   4:	036c                	addi	a1,sp,396
	...
   e:	0000                	unimp
  10:	ffff                	0xffff
  12:	ffff                	0xffff
  14:	0000                	unimp
  16:	0000                	unimp
  18:	0202                	c.slli64	tp
  1a:	0000                	unimp
  1c:	0270                	addi	a2,sp,268
  1e:	0000                	unimp
  20:	0000                	unimp
  22:	0000                	unimp
  24:	008c                	addi	a1,sp,64
	...
